	.file	"mummer.cpp"
	.text
.Ltext0:
	.p2align 4,,15
	.type	_ZStlsISt11char_traitsIcEERSt13basic_ostreamIcT_ES5_PKc.constprop.68, @function
_ZStlsISt11char_traitsIcEERSt13basic_ostreamIcT_ES5_PKc.constprop.68:
.LFB8281:
	.file 1 "/usr/local/lib/gcc/x86_64-unknown-linux-gnu/4.7.2/../../../../include/c++/4.7.2/ostream"
	.loc 1 528 0
	.cfi_startproc
.LVL0:
	.loc 1 530 0
	testq	%rdi, %rdi
	.loc 1 528 0
	pushq	%rbx
.LCFI0:
	.cfi_def_cfa_offset 16
	.cfi_offset 3, -16
	.loc 1 528 0
	movq	%rdi, %rbx
	.loc 1 530 0
	je	.L6
.LVL1:
.LBB909:
.LBB910:
	.file 2 "/usr/local/lib/gcc/x86_64-unknown-linux-gnu/4.7.2/../../../../include/c++/4.7.2/bits/char_traits.h"
	.loc 2 261 0
	call	strlen
.LVL2:
.LBE910:
.LBE909:
	.loc 1 533 0
	movq	%rbx, %rsi
	movl	$_ZSt4cerr, %edi
	movq	%rax, %rdx
	call	_ZSt16__ostream_insertIcSt11char_traitsIcEERSt13basic_ostreamIT_T0_ES6_PKS3_l
.LVL3:
	.loc 1 536 0
	movl	$_ZSt4cerr, %eax
	popq	%rbx
.LCFI1:
	.cfi_remember_state
	.cfi_def_cfa_offset 8
.LVL4:
	ret
.LVL5:
	.p2align 4,,10
	.p2align 3
.L6:
.LCFI2:
	.cfi_restore_state
.LBB911:
.LBB912:
	.loc 1 531 0
	movq	_ZSt4cerr(%rip), %rax
	movq	-24(%rax), %rdi
	addq	$_ZSt4cerr, %rdi
.LVL6:
.LBB913:
.LBB914:
.LBB915:
	.file 3 "/usr/local/lib/gcc/x86_64-unknown-linux-gnu/4.7.2/../../../../include/c++/4.7.2/bits/ios_base.h"
	.loc 3 160 0
	movl	32(%rdi), %esi
	orl	$1, %esi
.LBE915:
	.file 4 "/usr/local/lib/gcc/x86_64-unknown-linux-gnu/4.7.2/../../../../include/c++/4.7.2/bits/basic_ios.h"
	.loc 4 150 0
	call	_ZNSt9basic_iosIcSt11char_traitsIcEE5clearESt12_Ios_Iostate
.LVL7:
.LBE914:
.LBE913:
.LBE912:
.LBE911:
	.loc 1 536 0
	movl	$_ZSt4cerr, %eax
	popq	%rbx
.LCFI3:
	.cfi_def_cfa_offset 8
.LVL8:
	ret
	.cfi_endproc
.LFE8281:
	.size	_ZStlsISt11char_traitsIcEERSt13basic_ostreamIcT_ES5_PKc.constprop.68, .-_ZStlsISt11char_traitsIcEERSt13basic_ostreamIcT_ES5_PKc.constprop.68
	.section	.rodata.str1.1,"aMS",@progbits,1
.LC0:
	.string	"unable to open "
.LC1:
	.string	""
.LC2:
	.string	",Q.length="
.LC3:
	.string	"# "
.LC4:
	.string	"M(E/A/U)Ms="
	.text
	.p2align 4,,15
	.globl	_Z12query_threadPv
	.type	_Z12query_threadPv, @function
_Z12query_threadPv:
.LFB6858:
	.file 5 "mummer.cpp"
	.loc 5 48 0
	.cfi_startproc
	.cfi_personality 0x3,__gxx_personality_v0
	.cfi_lsda 0x3,.LLSDA6858
.LVL9:
	pushq	%r15
.LCFI4:
	.cfi_def_cfa_offset 16
	.cfi_offset 15, -16
.LBB1218:
	.loc 5 52 0
	movl	$8, %edx
.LBE1218:
	.loc 5 48 0
	pushq	%r14
.LCFI5:
	.cfi_def_cfa_offset 24
	.cfi_offset 14, -24
	pushq	%r13
.LCFI6:
	.cfi_def_cfa_offset 32
	.cfi_offset 13, -32
	pushq	%r12
.LCFI7:
	.cfi_def_cfa_offset 40
	.cfi_offset 12, -40
	pushq	%rbp
.LCFI8:
	.cfi_def_cfa_offset 48
	.cfi_offset 6, -48
	pushq	%rbx
.LCFI9:
	.cfi_def_cfa_offset 56
	.cfi_offset 3, -56
	subq	$696, %rsp
.LCFI10:
	.cfi_def_cfa_offset 752
.LVL10:
.LBB1477:
	.loc 5 52 0
	movq	query_fasta(%rip), %rsi
.LBE1477:
	.loc 5 48 0
	movq	%rdi, 24(%rsp)
.LBB1478:
	.loc 5 52 0
	leaq	160(%rsp), %rdi
.LVL11:
	.loc 5 50 0
	movq	$0, 120(%rsp)
.LVL12:
.LBB1219:
.LBB1220:
.LBB1221:
	.file 6 "/usr/local/lib/gcc/x86_64-unknown-linux-gnu/4.7.2/../../../../include/c++/4.7.2/bits/basic_string.h"
	.loc 6 272 0
	movq	$_ZNSs4_Rep20_S_empty_rep_storageE+24, 32(%rsp)
.LVL13:
.LBE1221:
.LBE1220:
.LBE1219:
.LBB1222:
.LBB1223:
.LBB1224:
	movq	$_ZNSs4_Rep20_S_empty_rep_storageE+24, 48(%rsp)
.LVL14:
.LEHB0:
.LBE1224:
.LBE1223:
.LBE1222:
	.loc 5 52 0
	call	_ZNSt14basic_ifstreamIcSt11char_traitsIcEEC1EPKcSt13_Ios_Openmode
.LEHE0:
.LVL15:
	.loc 5 60 0
	leaq	160(%rsp), %rdi
.LBB1225:
.LBB1226:
.LBB1227:
.LBB1228:
	.file 7 "/usr/local/lib/gcc/x86_64-unknown-linux-gnu/4.7.2/../../../../include/c++/4.7.2/bits/stl_vector.h"
	.loc 7 88 0
	movq	$0, 128(%rsp)
	movq	$0, 136(%rsp)
	leaq	48(%rsp), %r14
.LVL16:
	movq	$0, 144(%rsp)
.LVL17:
.LBE1228:
.LBE1227:
.LBE1226:
.LBE1225:
	.loc 5 60 0
	call	_ZNSt14basic_ifstreamIcSt11char_traitsIcEE7is_openEv
.LVL18:
	testb	%al, %al
	je	.L129
	.p2align 4,,10
	.p2align 3
.L122:
.LVL19:
	.loc 5 63 0 discriminator 1
	testb	$2, 448(%rsp)
	jne	.L130
.LVL20:
.LBB1229:
.LBB1230:
.LBB1231:
	.loc 6 2794 0
	movq	160(%rsp), %rax
.LBE1231:
	.file 8 "/usr/local/lib/gcc/x86_64-unknown-linux-gnu/4.7.2/../../../../include/c++/4.7.2/bits/locale_facets.h"
	.loc 8 1078 0
	movq	-24(%rax), %rax
	movq	400(%rsp,%rax), %rbx
.LVL21:
.LBB1246:
.LBB1232:
.LBB1233:
.LBB1234:
.LBB1235:
	.loc 4 50 0
	testq	%rbx, %rbx
	je	.L131
.LVL22:
.LBE1235:
.LBE1234:
.LBB1237:
.LBB1238:
	.loc 8 869 0
	cmpb	$0, 56(%rbx)
	je	.L10
	.loc 8 870 0
	movzbl	67(%rbx), %eax
.LVL23:
.L11:
.LBE1238:
.LBE1237:
.LBE1233:
.LBE1232:
	.loc 6 2794 0
	leaq	160(%rsp), %rdi
.LVL24:
	movsbl	%al, %edx
	movq	%r14, %rsi
	leaq	32(%rsp), %r15
.LVL25:
.LEHB1:
	call	_ZSt7getlineIcSt11char_traitsIcESaIcEERSt13basic_istreamIT_T0_ES7_RSbIS4_S5_T1_ES4_
.LVL26:
.LBE1246:
.LBE1230:
.LBB1249:
.LBB1250:
.LBB1251:
.LBB1252:
.LBB1253:
	.loc 6 290 0
	movq	48(%rsp), %rax
.LBE1253:
.LBE1252:
.LBE1251:
.LBE1250:
.LBE1249:
	.loc 5 65 0
	cmpq	$0, -24(%rax)
	je	.L122
.LVL27:
.LBB1254:
.LBB1255:
.LBB1256:
.LBB1257:
	.loc 6 313 0
	movl	-8(%rax), %r15d
.LVL28:
	testl	%r15d, %r15d
	js	.L13
	leaq	32(%rsp), %r15
.LVL29:
	.loc 6 314 0
	movq	%r14, %rdi
	call	_ZNSs12_M_leak_hardEv
.LVL30:
	movq	48(%rsp), %rax
.LVL31:
.L13:
.LBE1257:
.LBE1256:
.LBE1255:
	.loc 5 66 0
	cmpb	$62, (%rax)
	jne	.L122
.LBB1258:
	.loc 5 67 0
	movq	$1, 64(%rsp)
.LVL32:
	.loc 5 68 0
	leaq	80(%rsp), %rdx
	movq	%r14, %rdi
	.loc 5 67 0
	movq	-24(%rax), %rax
	.loc 5 68 0
	leaq	64(%rsp), %rsi
	leaq	32(%rsp), %r15
.LVL33:
	.loc 5 67 0
	subq	$1, %rax
	movq	%rax, 80(%rsp)
.LVL34:
	.loc 5 68 0
	call	_Z4trimRSsRlS0_
.LVL35:
.LBB1259:
	.loc 5 69 0
	movq	64(%rsp), %rbx
.LVL36:
	leaq	32(%rsp), %r15
	cmpq	80(%rsp), %rbx
	jle	.L109
	jmp	.L15
.LVL37:
	.p2align 4,,10
	.p2align 3
.L20:
	addq	$1, %rbx
.LVL38:
	cmpq	%rbx, 80(%rsp)
	jl	.L15
.LVL39:
.L109:
.LBB1260:
.LBB1261:
.LBB1262:
.LBB1263:
.LBB1264:
.LBB1265:
.LBB1266:
	.loc 6 290 0
	movq	48(%rsp), %rax
.LBE1266:
.LBE1265:
.LBE1264:
	.loc 6 313 0
	movl	-8(%rax), %r13d
	testl	%r13d, %r13d
	js	.L16
	.loc 6 314 0
	movq	%r14, %rdi
	call	_ZNSs12_M_leak_hardEv
.LVL40:
	movq	48(%rsp), %rax
.L16:
.LVL41:
.LBE1263:
.LBE1262:
.LBE1261:
.LBE1260:
	.loc 5 70 0
	movzbl	(%rax,%rbx), %ebp
	cmpb	$32, %bpl
	je	.L15
.LVL42:
.LBB1267:
.LBB1268:
.LBB1269:
	.loc 6 313 0
	movl	-8(%rax), %r12d
	testl	%r12d, %r12d
	js	.L18
	.loc 6 314 0
	movq	%r14, %rdi
	call	_ZNSs12_M_leak_hardEv
.LVL43:
	movq	48(%rsp), %rax
	movzbl	(%rax,%rbx), %ebp
.L18:
.LVL44:
.LBE1269:
.LBE1268:
.LBE1267:
.LBB1270:
.LBB1271:
.LBB1272:
.LBB1273:
.LBB1274:
.LBB1275:
.LBB1276:
.LBB1277:
	.loc 6 290 0
	movq	32(%rsp), %rax
.LBE1277:
.LBE1276:
.LBE1275:
.LBE1274:
.LBE1273:
	.loc 6 1051 0
	movq	-24(%rax), %r12
	addq	$1, %r12
.LVL45:
	.loc 6 1052 0
	cmpq	-16(%rax), %r12
	ja	.L19
.LVL46:
	movl	-8(%rax), %r11d
	testl	%r11d, %r11d
	jle	.L80
.LVL47:
.L19:
	.loc 6 1053 0
	movq	%r12, %rsi
	movq	%r15, %rdi
	call	_ZNSs7reserveEm
.LVL48:
	movq	32(%rsp), %rax
.L80:
.LVL49:
.LBB1278:
.LBB1279:
	.loc 2 245 0
	movq	-24(%rax), %rdx
	movb	%bpl, (%rax,%rdx)
.LVL50:
.LBE1279:
.LBE1278:
.LBB1280:
.LBB1281:
.LBB1282:
	.loc 6 290 0
	movq	32(%rsp), %rax
.LVL51:
.LBE1282:
.LBE1281:
.LBE1280:
.LBB1283:
.LBB1284:
	.loc 6 207 0
	cmpq	$_ZNSs4_Rep20_S_empty_rep_storageE+24, %rax
	je	.L20
.LBB1285:
.LBB1286:
	.loc 6 201 0
	movl	$0, -8(%rax)
.LBE1286:
.LBE1285:
	.loc 6 211 0
	movq	%r12, -24(%rax)
.LVL52:
.LBB1287:
.LBB1288:
	.loc 2 245 0
	movb	$0, (%rax,%r12)
	jmp	.L20
.LVL53:
	.p2align 4,,10
	.p2align 3
.L10:
	leaq	32(%rsp), %r15
.LVL54:
.LBE1288:
.LBE1287:
.LBE1284:
.LBE1283:
.LBE1272:
.LBE1271:
.LBE1270:
.LBE1259:
.LBE1258:
.LBE1254:
.LBB1289:
.LBB1247:
.LBB1244:
.LBB1242:
.LBB1240:
.LBB1239:
	.loc 8 871 0
	movq	%rbx, %rdi
	call	_ZNKSt5ctypeIcE13_M_widen_initEv
.LVL55:
	.loc 8 872 0
	movq	(%rbx), %rax
	movl	$10, %esi
	movq	%rbx, %rdi
	leaq	32(%rsp), %r15
	call	*48(%rax)
.LVL56:
	jmp	.L11
.LVL57:
.L130:
	leaq	32(%rsp), %r15
.LVL58:
.L15:
.LBE1239:
.LBE1240:
.LBE1242:
.LBE1244:
.LBE1247:
.LBE1289:
.LBE1229:
	.loc 5 77 0
	movl	$8, %edi
	call	_Znwm
.LVL59:
	movq	%rax, %rbp
.LVL60:
.LBB1291:
.LBB1292:
.LBB1293:
	.loc 6 272 0
	movq	$_ZNSs4_Rep20_S_empty_rep_storageE+24, (%rax)
.LVL61:
.LBE1293:
.LBE1292:
.LBE1291:
	.loc 5 58 0
	movq	$0, 16(%rsp)
.LVL62:
	.p2align 4,,10
	.p2align 3
.L123:
	.loc 5 78 0 discriminator 1
	testb	$2, 448(%rsp)
	jne	.L132
.L64:
.LVL63:
.LBB1294:
.LBB1295:
.LBB1296:
	.loc 6 2794 0
	movq	160(%rsp), %rax
.LBE1296:
	.loc 8 1078 0
	movq	-24(%rax), %rax
	movq	400(%rsp,%rax), %rbx
.LVL64:
.LBB1311:
.LBB1297:
.LBB1298:
.LBB1299:
.LBB1300:
	.loc 4 50 0
	testq	%rbx, %rbx
	je	.L133
.LVL65:
.LBE1300:
.LBE1299:
.LBB1302:
.LBB1303:
	.loc 8 869 0
	cmpb	$0, 56(%rbx)
	je	.L25
	.loc 8 870 0
	movzbl	67(%rbx), %eax
.L26:
.LBE1303:
.LBE1302:
.LBE1298:
.LBE1297:
	.loc 6 2794 0
	leaq	160(%rsp), %rdi
.LVL66:
	movsbl	%al, %edx
	movq	%r14, %rsi
	call	_ZSt7getlineIcSt11char_traitsIcESaIcEERSt13basic_istreamIT_T0_ES7_RSbIS4_S5_T1_ES4_
.LVL67:
.LBE1311:
.LBE1295:
.LBB1314:
.LBB1315:
.LBB1316:
.LBB1317:
.LBB1318:
	.loc 6 290 0
	movq	48(%rsp), %rax
.LBE1318:
.LBE1317:
.LBE1316:
	.loc 6 719 0
	movq	-24(%rax), %rdx
.LBE1315:
.LBE1314:
	.loc 5 80 0
	testq	%rdx, %rdx
	je	.L123
	.loc 5 81 0
	movq	$0, 64(%rsp)
.LVL68:
	subq	$1, %rdx
	movq	%rdx, 80(%rsp)
.LVL69:
.LBB1319:
.LBB1320:
.LBB1321:
.LBB1322:
	.loc 6 313 0
	movl	-8(%rax), %r10d
	testl	%r10d, %r10d
	js	.L29
	.loc 6 314 0
	movq	%r14, %rdi
	call	_ZNSs12_M_leak_hardEv
.LVL70:
	movq	48(%rsp), %rax
.L29:
.LVL71:
.LBE1322:
.LBE1321:
.LBE1320:
	.loc 5 84 0
	cmpb	$62, (%rax)
	je	.L134
.LBB1323:
	.loc 5 123 0
	leaq	80(%rsp), %rdx
	movq	%r14, %rdi
	leaq	64(%rsp), %rsi
	call	_Z4trimRSsRlS0_
.LVL72:
.LBB1324:
	.loc 5 124 0
	movq	64(%rsp), %rbx
.LVL73:
	cmpq	80(%rsp), %rbx
	jle	.L108
	jmp	.L123
.LVL74:
	.p2align 4,,10
	.p2align 3
.L62:
	addq	$1, %rbx
.LVL75:
	cmpq	%rbx, 80(%rsp)
	jl	.L123
.LVL76:
.L108:
.LBB1325:
.LBB1326:
.LBB1327:
.LBB1328:
.LBB1329:
.LBB1330:
.LBB1331:
.LBB1332:
	.loc 6 290 0
	movq	48(%rsp), %rax
.LBE1332:
.LBE1331:
.LBE1330:
	.loc 6 313 0
	movl	-8(%rax), %esi
	testl	%esi, %esi
	js	.L58
	.loc 6 314 0
	movq	%r14, %rdi
	call	_ZNSs12_M_leak_hardEv
.LVL77:
	movq	48(%rsp), %rax
.L58:
.LVL78:
.LBE1329:
.LBE1328:
.LBE1327:
.LBE1326:
	.loc 5 125 0
	movsbl	(%rax,%rbx), %edi
	call	tolower
.LVL79:
	.loc 5 126 0
	cmpb	$0, nucleotides_only(%rip)
	.loc 5 125 0
	movl	%eax, %r13d
.LVL80:
	.loc 5 126 0
	je	.L59
	.loc 5 127 0
	leal	-97(%r13), %ecx
	cmpb	$19, %cl
	ja	.L83
	movl	$1, %eax
.LVL81:
	salq	%cl, %rax
	testl	$524357, %eax
	jne	.L59
.L83:
	.loc 5 130 0
	movl	$126, %r13d
.LVL82:
.L59:
.LBB1333:
.LBB1334:
.LBB1335:
.LBB1336:
.LBB1337:
.LBB1338:
.LBB1339:
.LBB1340:
	.loc 6 290 0
	movq	0(%rbp), %rax
.LBE1340:
.LBE1339:
.LBE1338:
	.loc 6 713 0
	movq	-24(%rax), %rdx
.LBE1337:
.LBE1336:
	.loc 6 1051 0
	leaq	1(%rdx), %r12
.LVL83:
	.loc 6 1052 0
	cmpq	-16(%rax), %r12
	ja	.L61
.LVL84:
	movl	-8(%rax), %ecx
	testl	%ecx, %ecx
	jle	.L82
.L61:
	.loc 6 1053 0
	movq	%r12, %rsi
	movq	%rbp, %rdi
	call	_ZNSs7reserveEm
.LVL85:
	movq	0(%rbp), %rax
	movq	-24(%rax), %rdx
.L82:
.LVL86:
.LBB1341:
.LBB1342:
	.loc 2 245 0
	movb	%r13b, (%rax,%rdx)
.LVL87:
.LBE1342:
.LBE1341:
.LBB1343:
.LBB1344:
.LBB1345:
	.loc 6 290 0
	movq	0(%rbp), %rax
.LVL88:
.LBE1345:
.LBE1344:
.LBE1343:
.LBB1346:
.LBB1347:
	.loc 6 207 0
	cmpq	$_ZNSs4_Rep20_S_empty_rep_storageE+24, %rax
	je	.L62
.LBB1348:
.LBB1349:
	.loc 6 201 0
	movl	$0, -8(%rax)
.LBE1349:
.LBE1348:
	.loc 6 211 0
	movq	%r12, -24(%rax)
.LVL89:
.LBB1350:
.LBB1351:
	.loc 2 245 0
	movb	$0, (%rax,%r12)
	jmp	.L62
.LVL90:
	.p2align 4,,10
	.p2align 3
.L25:
.LBE1351:
.LBE1350:
.LBE1347:
.LBE1346:
.LBE1335:
.LBE1334:
.LBE1333:
.LBE1325:
.LBE1324:
.LBE1323:
.LBE1319:
.LBB1447:
.LBB1312:
.LBB1309:
.LBB1307:
.LBB1305:
.LBB1304:
	.loc 8 871 0
	movq	%rbx, %rdi
	call	_ZNKSt5ctypeIcE13_M_widen_initEv
.LVL91:
	.loc 8 872 0
	movq	(%rbx), %rax
	movl	$10, %esi
	movq	%rbx, %rdi
	call	*48(%rax)
.LVL92:
	jmp	.L26
.LVL93:
	.p2align 4,,10
	.p2align 3
.L134:
.LBE1304:
.LBE1305:
.LBE1307:
.LBE1309:
.LBE1312:
.LBE1447:
.LBB1448:
.LBB1352:
.LBB1353:
.LBB1354:
.LBB1355:
	.loc 6 2518 0
	movl	$.LC1, %esi
	movq	%r15, %rdi
	call	_ZNKSs7compareEPKc
.LVL94:
.LBE1355:
.LBE1354:
.LBE1353:
	.loc 5 85 0
	testl	%eax, %eax
	je	.L31
	.loc 5 86 0
	movq	24(%rsp), %rax
	movslq	4(%rax), %rcx
	movq	16(%rsp), %rax
	movq	%rax, %rdx
	sarq	$63, %rdx
	idivq	%rcx
	movq	24(%rsp), %rcx
	movslq	(%rcx), %rax
	cmpq	%rax, %rdx
	je	.L135
.LVL95:
.L33:
	.loc 5 111 0
	addq	$1, 16(%rsp)
	.loc 5 112 0
	movq	%rbp, %rdi
	call	_ZNSsD1Ev
.LVL96:
	movq	%rbp, %rdi
	call	_ZdlPv
.LVL97:
	movl	$8, %edi
	call	_Znwm
.LVL98:
.LBB1356:
.LBB1357:
.LBB1358:
	.loc 6 272 0
	movq	$_ZNSs4_Rep20_S_empty_rep_storageE+24, (%rax)
.LVL99:
.LBE1358:
.LBE1357:
.LBE1356:
.LBB1359:
.LBB1360:
.LBB1361:
	.loc 6 1128 0
	xorl	%edx, %edx
	movl	$.LC1, %esi
	movq	%r15, %rdi
.LBE1361:
.LBE1360:
.LBE1359:
	.loc 5 112 0
	movq	%rax, %rbp
.LVL100:
.LBB1364:
.LBB1363:
.LBB1362:
	.loc 6 1128 0
	call	_ZNSs6assignEPKcm
.LVL101:
.L31:
.LBE1362:
.LBE1363:
.LBE1364:
	.loc 5 115 0
	leaq	80(%rsp), %rdx
	movq	%r14, %rdi
	.loc 5 114 0
	movq	$1, 64(%rsp)
	.loc 5 115 0
	leaq	64(%rsp), %rsi
	call	_Z4trimRSsRlS0_
.LVL102:
.LBB1365:
	.loc 5 116 0
	movq	64(%rsp), %rbx
.LVL103:
	cmpq	80(%rsp), %rbx
	jle	.L107
	jmp	.L49
.LVL104:
	.p2align 4,,10
	.p2align 3
.L137:
.LBB1366:
.LBB1367:
.LBB1368:
	.loc 6 313 0
	movl	-8(%rax), %r8d
	testl	%r8d, %r8d
	js	.L50
	.loc 6 314 0
	movq	%r14, %rdi
	call	_ZNSs12_M_leak_hardEv
.LVL105:
	movq	48(%rsp), %rax
	movzbl	(%rax,%rbx), %r12d
.L50:
.LVL106:
.LBE1368:
.LBE1367:
.LBE1366:
.LBB1369:
.LBB1370:
.LBB1371:
.LBB1372:
.LBB1373:
.LBB1374:
.LBB1375:
.LBB1376:
	.loc 6 290 0
	movq	32(%rsp), %rax
.LBE1376:
.LBE1375:
.LBE1374:
	.loc 6 713 0
	movq	-24(%rax), %rdx
.LBE1373:
.LBE1372:
	.loc 6 1051 0
	leaq	1(%rdx), %r13
.LVL107:
	.loc 6 1052 0
	cmpq	-16(%rax), %r13
	ja	.L51
.LVL108:
	movl	-8(%rax), %edi
	testl	%edi, %edi
	jle	.L81
.LVL109:
.L51:
	.loc 6 1053 0
	movq	%r13, %rsi
	movq	%r15, %rdi
	call	_ZNSs7reserveEm
.LVL110:
	movq	32(%rsp), %rax
	movq	-24(%rax), %rdx
.L81:
.LVL111:
.LBB1377:
.LBB1378:
	.loc 2 245 0
	movb	%r12b, (%rax,%rdx)
.LVL112:
.LBE1378:
.LBE1377:
.LBB1379:
.LBB1380:
.LBB1381:
	.loc 6 290 0
	movq	32(%rsp), %rax
.LVL113:
.LBE1381:
.LBE1380:
.LBE1379:
.LBB1382:
.LBB1383:
	.loc 6 207 0
	cmpq	$_ZNSs4_Rep20_S_empty_rep_storageE+24, %rax
	jne	.L136
.L52:
.LBE1383:
.LBE1382:
.LBE1371:
.LBE1370:
.LBE1369:
	.loc 5 116 0
	addq	$1, %rbx
.LVL114:
	cmpq	%rbx, 80(%rsp)
	jl	.L49
.LVL115:
.L107:
.LBB1392:
.LBB1393:
.LBB1394:
.LBB1395:
.LBB1396:
.LBB1397:
.LBB1398:
	.loc 6 290 0
	movq	48(%rsp), %rax
.LBE1398:
.LBE1397:
.LBE1396:
	.loc 6 313 0
	movl	-8(%rax), %r9d
	testl	%r9d, %r9d
	js	.L48
	.loc 6 314 0
	movq	%r14, %rdi
	call	_ZNSs12_M_leak_hardEv
.LVL116:
	movq	48(%rsp), %rax
.L48:
.LVL117:
.LBE1395:
.LBE1394:
.LBE1393:
.LBE1392:
	.loc 5 117 0
	movzbl	(%rax,%rbx), %r12d
	cmpb	$32, %r12b
	jne	.L137
.LVL118:
.L49:
.LBE1365:
.LBB1400:
.LBB1401:
	.loc 1 533 0
	movl	$2, %edx
	movl	$.LC3, %esi
	movl	$_ZSt4cerr, %edi
	call	_ZSt16__ostream_insertIcSt11char_traitsIcEERSt13basic_ostreamIT_T0_ES6_PKS3_l
.LVL119:
.LBE1401:
.LBE1400:
.LBB1402:
.LBB1403:
.LBB1404:
.LBB1405:
.LBB1406:
.LBB1407:
.LBB1408:
	.loc 6 290 0
	movq	32(%rsp), %rsi
.LVL120:
.LBE1408:
.LBE1407:
.LBE1406:
.LBE1405:
.LBE1404:
	.loc 6 2755 0
	movl	$_ZSt4cerr, %edi
	movq	-24(%rsi), %rdx
	call	_ZSt16__ostream_insertIcSt11char_traitsIcEERSt13basic_ostreamIT_T0_ES6_PKS3_l
.LVL121:
	movq	%rax, %r12
.LVL122:
.LBE1403:
.LBE1402:
.LBB1409:
.LBB1410:
.LBB1411:
	.loc 1 563 0
	movq	(%rax), %rax
.LVL123:
.LBE1411:
	.loc 8 1078 0
	movq	-24(%rax), %rax
	movq	240(%r12,%rax), %rbx
.LVL124:
.LBB1428:
.LBB1412:
.LBB1413:
.LBB1414:
.LBB1415:
	.loc 4 50 0
	testq	%rbx, %rbx
	je	.L138
.LVL125:
.LBE1415:
.LBE1414:
.LBB1417:
.LBB1418:
	.loc 8 869 0
	cmpb	$0, 56(%rbx)
	je	.L55
	.loc 8 870 0
	movzbl	67(%rbx), %eax
.L56:
.LBE1418:
.LBE1417:
.LBE1413:
.LBE1412:
	.loc 1 563 0
	movsbl	%al, %esi
	movq	%r12, %rdi
	call	_ZNSo3putEc
.LVL126:
.LBB1424:
.LBB1425:
	.loc 1 585 0
	movq	%rax, %rdi
	call	_ZNSo5flushEv
.LVL127:
.LBE1425:
.LBE1424:
.LBE1428:
.LBE1410:
.LBE1409:
.LBE1352:
.LBE1448:
.LBE1294:
	.loc 5 78 0
	testb	$2, 448(%rsp)
	je	.L64
.LVL128:
.L132:
.LBB1453:
.LBB1454:
.LBB1455:
	.loc 6 2518 0
	movl	$.LC1, %esi
	movq	%r15, %rdi
	call	_ZNKSs7compareEPKc
.LVL129:
.LBE1455:
.LBE1454:
.LBE1453:
	.loc 5 138 0
	testl	%eax, %eax
	jne	.L65
.L67:
	.loc 5 165 0
	movq	%rbp, %rdi
	call	_ZNSsD1Ev
.LVL130:
	movq	%rbp, %rdi
	call	_ZdlPv
.LVL131:
	.loc 5 166 0
	movl	$.LC4, %edi
	movq	120(%rsp), %rbx
	call	_ZStlsISt11char_traitsIcEERSt13basic_ostreamIcT_ES5_PKc.constprop.68
.LVL132:
	movq	%rbx, %rsi
	movq	%rax, %rdi
	call	_ZNSolsEl
.LVL133:
	.loc 5 167 0
	xorl	%edi, %edi
	call	pthread_exit
.LVL134:
.L55:
.LBB1456:
.LBB1449:
.LBB1444:
.LBB1433:
.LBB1431:
.LBB1429:
.LBB1426:
.LBB1422:
.LBB1420:
.LBB1419:
	.loc 8 871 0
	movq	%rbx, %rdi
	call	_ZNKSt5ctypeIcE13_M_widen_initEv
.LVL135:
	.loc 8 872 0
	movq	(%rbx), %rax
	movl	$10, %esi
	movq	%rbx, %rdi
	call	*48(%rax)
.LVL136:
	jmp	.L56
.LVL137:
.L65:
.LBE1419:
.LBE1420:
.LBE1422:
.LBE1426:
.LBE1429:
.LBE1431:
.LBE1433:
.LBE1444:
.LBE1449:
.LBE1456:
	.loc 5 139 0
	movq	24(%rsp), %rdx
	movq	16(%rsp), %rax
	movslq	4(%rdx), %rcx
	movq	%rax, %rdx
	sarq	$63, %rdx
	idivq	%rcx
	movq	24(%rsp), %rcx
	movslq	(%rcx), %rax
	cmpq	%rax, %rdx
	jne	.L67
.LVL138:
.LBB1457:
.LBB1458:
	.loc 6 719 0
	movq	0(%rbp), %rax
.LBE1458:
.LBE1457:
	.loc 5 140 0
	movl	$.LC2, %edi
.LBB1460:
.LBB1459:
	.loc 6 719 0
	movq	-24(%rax), %rbx
.LBE1459:
.LBE1460:
	.loc 5 140 0
	call	_ZStlsISt11char_traitsIcEERSt13basic_ostreamIcT_ES5_PKc.constprop.68
.LVL139:
	movq	%rbx, %rsi
	movq	%rax, %rdi
	call	_ZNSolsEm
.LVL140:
	.loc 5 141 0
	cmpb	$0, forwards(%rip)
	je	.L71
	.loc 5 147 0
	movl	type(%rip), %eax
	cmpl	$1, %eax
	je	.L139
	.loc 5 148 0
	testl	%eax, %eax
	je	.L140
	.loc 5 149 0
	cmpl	$2, %eax
	jne	.L71
	.loc 5 149 0 is_stmt 0 discriminator 1
	movl	num_threads(%rip), %eax
	leaq	120(%rsp), %r9
	xorl	%r8d, %r8d
	movl	min_len(%rip), %ecx
	leaq	128(%rsp), %rdx
.LVL141:
	movq	%rbp, %rsi
	movq	sa(%rip), %rdi
	movl	%eax, (%rsp)
	call	_ZN8sparseSA3MEMERSsRSt6vectorI7match_tSaIS2_EEibRli
.LVL142:
.L71:
	.loc 5 152 0 is_stmt 1
	cmpb	$0, rev_comp(%rip)
	je	.L67
	.loc 5 153 0
	movzbl	nucleotides_only(%rip), %esi
	movq	%rbp, %rdi
	call	_Z18reverse_complementRSsb
.LVL143:
	.loc 5 158 0
	movl	type(%rip), %eax
	cmpl	$1, %eax
	je	.L141
	.loc 5 159 0
	testl	%eax, %eax
	je	.L142
	.loc 5 160 0
	cmpl	$2, %eax
	jne	.L67
	.loc 5 160 0 is_stmt 0 discriminator 1
	movl	num_threads(%rip), %eax
	leaq	120(%rsp), %r9
	xorl	%r8d, %r8d
	movl	min_len(%rip), %ecx
	leaq	128(%rsp), %rdx
.LVL144:
	movq	%rbp, %rsi
	movq	sa(%rip), %rdi
	movl	%eax, (%rsp)
	call	_ZN8sparseSA3MEMERSsRSt6vectorI7match_tSaIS2_EEibRli
.LVL145:
	jmp	.L67
.LVL146:
.L129:
	leaq	32(%rsp), %r15
.LVL147:
	.loc 5 60 0 is_stmt 1 discriminator 1
	movl	$.LC0, %edi
	call	_ZStlsISt11char_traitsIcEERSt13basic_ostreamIcT_ES5_PKc.constprop.68
.LVL148:
	leaq	48(%rsp), %r14
	movl	$query_fasta, %esi
	movq	%rax, %rdi
	leaq	32(%rsp), %r15
	call	_ZStlsIcSt11char_traitsIcESaIcEERSt13basic_ostreamIT_T0_ES7_RKSbIS4_S5_T1_E
.LVL149:
	leaq	48(%rsp), %r14
.LBB1461:
.LBB1462:
	.loc 1 111 0 discriminator 1
	movq	%rax, %rdi
	leaq	32(%rsp), %r15
	call	_ZSt4endlIcSt11char_traitsIcEERSt13basic_ostreamIT_T0_ES6_
.LVL150:
.LBE1462:
.LBE1461:
	.loc 5 60 0
	movl	$1, %edi
	call	exit
.LVL151:
.L135:
.LBB1463:
.LBB1450:
.LBB1445:
.LBB1434:
.LBB1435:
	.loc 6 719 0
	movq	0(%rbp), %rax
.LBE1435:
.LBE1434:
	.loc 5 88 0
	movl	$.LC2, %edi
.LBB1437:
.LBB1436:
	.loc 6 719 0
	movq	-24(%rax), %rbx
.LVL152:
.LBE1436:
.LBE1437:
	.loc 5 88 0
	call	_ZStlsISt11char_traitsIcEERSt13basic_ostreamIcT_ES5_PKc.constprop.68
.LVL153:
	movq	%rbx, %rsi
	movq	%rax, %rdi
	call	_ZNSolsEm
.LVL154:
	.loc 5 89 0
	cmpb	$0, forwards(%rip)
	je	.L34
	.loc 5 94 0
	movl	type(%rip), %eax
	cmpl	$1, %eax
	je	.L143
	.loc 5 95 0
	testl	%eax, %eax
	je	.L144
	.loc 5 96 0
	cmpl	$2, %eax
	je	.L145
.L38:
	.loc 5 97 0
	leaq	96(%rsp), %rdi
	movq	%r15, %rsi
	call	_ZNSsC1ERKSs
.LEHE1:
.LVL155:
	.loc 5 97 0 is_stmt 0 discriminator 1
	movq	sa(%rip), %rdi
	leaq	96(%rsp), %rsi
	xorl	%ecx, %ecx
	leaq	128(%rsp), %rdx
.LVL156:
.LEHB2:
	call	_ZN8sparseSA11print_matchESsRSt6vectorI7match_tSaIS1_EEb
.LEHE2:
.LVL157:
	leaq	96(%rsp), %rdi
	call	_ZNSsD1Ev
.LVL158:
.L34:
	.loc 5 99 0 is_stmt 1
	cmpb	$0, rev_comp(%rip)
	je	.L33
	.loc 5 100 0
	movzbl	nucleotides_only(%rip), %esi
	movq	%rbp, %rdi
.LEHB3:
	call	_Z18reverse_complementRSsb
.LVL159:
	.loc 5 105 0
	movl	type(%rip), %eax
	cmpl	$1, %eax
	je	.L146
	.loc 5 106 0
	testl	%eax, %eax
	je	.L147
	.loc 5 107 0
	cmpl	$2, %eax
	je	.L148
.L44:
	.loc 5 108 0
	leaq	112(%rsp), %rdi
	movq	%r15, %rsi
	call	_ZNSsC1ERKSs
.LEHE3:
.LVL160:
	.loc 5 108 0 is_stmt 0 discriminator 1
	movq	sa(%rip), %rdi
	movl	$1, %ecx
	leaq	128(%rsp), %rdx
.LVL161:
	leaq	112(%rsp), %rsi
.LEHB4:
	call	_ZN8sparseSA11print_matchESsRSt6vectorI7match_tSaIS1_EEb
.LEHE4:
.LVL162:
	leaq	112(%rsp), %rdi
	call	_ZNSsD1Ev
.LVL163:
	jmp	.L33
.LVL164:
.L85:
	movq	%rax, %rbx
.L76:
.LVL165:
.LBE1445:
.LBE1450:
.LBE1463:
.LBB1464:
.LBB1465:
.LBB1466:
	.loc 7 161 0 is_stmt 1
	movq	128(%rsp), %rdi
.LVL166:
.LBB1467:
.LBB1468:
	.loc 7 174 0
	testq	%rdi, %rdi
	je	.L78
.LVL167:
.LBB1469:
.LBB1470:
	.file 9 "/usr/local/lib/gcc/x86_64-unknown-linux-gnu/4.7.2/../../../../include/c++/4.7.2/ext/new_allocator.h"
	.loc 9 100 0
	call	_ZdlPv
.LVL168:
.L78:
.LBE1470:
.LBE1469:
.LBE1468:
.LBE1467:
.LBE1466:
.LBE1465:
.LBE1464:
	.loc 5 167 0
	leaq	160(%rsp), %rdi
	call	_ZNSt14basic_ifstreamIcSt11char_traitsIcEED1Ev
.LVL169:
.L79:
	movq	%r14, %rdi
	call	_ZNSsD1Ev
.LVL170:
	movq	%r15, %rdi
	call	_ZNSsD1Ev
.LVL171:
	movq	%rbx, %rdi
.LEHB5:
	call	_Unwind_Resume
.LEHE5:
.LVL172:
.L133:
.LEHB6:
.LBB1471:
.LBB1451:
.LBB1313:
.LBB1310:
.LBB1308:
.LBB1306:
.LBB1301:
	.loc 4 51 0
	call	_ZSt16__throw_bad_castv
.LVL173:
.L147:
.LBE1301:
.LBE1306:
.LBE1308:
.LBE1310:
.LBE1313:
.LBE1451:
.LBB1452:
.LBB1446:
	.loc 5 106 0 discriminator 1
	movl	min_len(%rip), %r8d
	leaq	120(%rsp), %r9
	movq	%rbp, %rsi
	movl	chunks(%rip), %edx
	movl	$0, (%rsp)
	leaq	128(%rsp), %rcx
.LVL174:
	movq	sa(%rip), %rdi
	call	_ZN8sparseSA11MUMParallelERSsiRSt6vectorI7match_tSaIS2_EEiRlb
.LVL175:
	jmp	.L44
.L144:
	.loc 5 95 0 discriminator 1
	movl	min_len(%rip), %r8d
	leaq	120(%rsp), %r9
	movq	%rbp, %rsi
	movl	chunks(%rip), %edx
	movl	$0, (%rsp)
	leaq	128(%rsp), %rcx
.LVL176:
	movq	sa(%rip), %rdi
	call	_ZN8sparseSA11MUMParallelERSsiRSt6vectorI7match_tSaIS2_EEiRlb
.LVL177:
	jmp	.L38
.L143:
	.loc 5 94 0 discriminator 1
	movq	sa(%rip), %rdi
.LVL178:
	movl	min_len(%rip), %r9d
.LVL179:
.LBB1438:
.LBB1439:
	.file 10 "sparseSA.hpp"
	.loc 10 190 0 discriminator 1
	cmpq	$1, 192(%rdi)
	jne	.L38
	.loc 10 191 0
	leaq	120(%rsp), %rax
.LVL180:
	movl	$0, 8(%rsp)
	xorl	%edx, %edx
	movq	%rax, (%rsp)
	leaq	128(%rsp), %r8
.LVL181:
	movq	%rbp, %rsi
	movl	$1, %ecx
	call	_ZN8sparseSA7findMAMERSsiiRSt6vectorI7match_tSaIS2_EEiRlb
.LVL182:
	jmp	.L38
.LVL183:
.L136:
.LBE1439:
.LBE1438:
.LBB1440:
.LBB1399:
.LBB1391:
.LBB1390:
.LBB1389:
.LBB1388:
.LBB1384:
.LBB1385:
	.loc 6 201 0
	movl	$0, -8(%rax)
.LBE1385:
.LBE1384:
	.loc 6 211 0
	movq	%r13, -24(%rax)
.LVL184:
.LBB1386:
.LBB1387:
	.loc 2 245 0
	movb	$0, (%rax,%r13)
	jmp	.L52
.LVL185:
.L138:
.LBE1387:
.LBE1386:
.LBE1388:
.LBE1389:
.LBE1390:
.LBE1391:
.LBE1399:
.LBE1440:
.LBB1441:
.LBB1432:
.LBB1430:
.LBB1427:
.LBB1423:
.LBB1421:
.LBB1416:
	.loc 4 51 0
	call	_ZSt16__throw_bad_castv
.LVL186:
.L87:
.LBE1416:
.LBE1421:
.LBE1423:
.LBE1427:
.LBE1430:
.LBE1432:
.LBE1441:
	.loc 5 108 0
	leaq	112(%rsp), %rdi
	movq	%rax, %rbx
	call	_ZNSsD1Ev
.LVL187:
	jmp	.L76
.L148:
	.loc 5 107 0 discriminator 1
	movl	num_threads(%rip), %eax
	leaq	120(%rsp), %r9
	xorl	%r8d, %r8d
	movl	min_len(%rip), %ecx
	leaq	128(%rsp), %rdx
.LVL188:
	movq	%rbp, %rsi
	movq	sa(%rip), %rdi
	movl	%eax, (%rsp)
	call	_ZN8sparseSA3MEMERSsRSt6vectorI7match_tSaIS2_EEibRli
.LVL189:
	jmp	.L44
.L146:
	.loc 5 105 0 discriminator 1
	movq	sa(%rip), %rdi
.LVL190:
	movl	min_len(%rip), %r9d
.LVL191:
.LBB1442:
.LBB1443:
	.loc 10 190 0 discriminator 1
	cmpq	$1, 192(%rdi)
	jne	.L44
	.loc 10 191 0
	leaq	120(%rsp), %rdx
.LVL192:
	movl	$0, 8(%rsp)
	movq	%rbp, %rsi
	movq	%rdx, (%rsp)
	leaq	128(%rsp), %r8
.LVL193:
	xorl	%edx, %edx
.LVL194:
	movl	$1, %ecx
	call	_ZN8sparseSA7findMAMERSsiiRSt6vectorI7match_tSaIS2_EEiRlb
.LVL195:
	jmp	.L44
.LVL196:
.L86:
.LBE1443:
.LBE1442:
	.loc 5 97 0
	leaq	96(%rsp), %rdi
	movq	%rax, %rbx
	call	_ZNSsD1Ev
.LVL197:
	jmp	.L76
.L145:
	.loc 5 96 0 discriminator 1
	movl	num_threads(%rip), %eax
	leaq	120(%rsp), %r9
	xorl	%r8d, %r8d
	movl	min_len(%rip), %ecx
	leaq	128(%rsp), %rdx
.LVL198:
	movq	%rbp, %rsi
	movq	sa(%rip), %rdi
	movl	%eax, (%rsp)
	call	_ZN8sparseSA3MEMERSsRSt6vectorI7match_tSaIS2_EEibRli
.LVL199:
	jmp	.L38
.LVL200:
.L131:
	leaq	32(%rsp), %r15
.LVL201:
.LBE1446:
.LBE1452:
.LBE1471:
.LBB1472:
.LBB1290:
.LBB1248:
.LBB1245:
.LBB1243:
.LBB1241:
.LBB1236:
	.loc 4 51 0
	call	_ZSt16__throw_bad_castv
.LVL202:
.L84:
	leaq	48(%rsp), %r14
.LVL203:
	movq	%rax, %rbx
	leaq	32(%rsp), %r15
.LVL204:
	jmp	.L79
.LVL205:
.L142:
.LBE1236:
.LBE1241:
.LBE1243:
.LBE1245:
.LBE1248:
.LBE1290:
.LBE1472:
	.loc 5 159 0 discriminator 1
	movl	min_len(%rip), %r8d
	leaq	120(%rsp), %r9
	movq	%rbp, %rsi
	movl	chunks(%rip), %edx
	movl	$0, (%rsp)
	leaq	128(%rsp), %rcx
.LVL206:
	movq	sa(%rip), %rdi
	call	_ZN8sparseSA11MUMParallelERSsiRSt6vectorI7match_tSaIS2_EEiRlb
.LVL207:
	jmp	.L67
.L141:
	.loc 5 158 0 discriminator 1
	movq	sa(%rip), %rdi
.LVL208:
	movl	min_len(%rip), %r9d
.LVL209:
.LBB1473:
.LBB1474:
	.loc 10 190 0 discriminator 1
	cmpq	$1, 192(%rdi)
	jne	.L67
	.loc 10 191 0
	leaq	120(%rsp), %rax
.LVL210:
	movl	$0, 8(%rsp)
	xorl	%edx, %edx
	movq	%rax, (%rsp)
	leaq	128(%rsp), %r8
.LVL211:
	movq	%rbp, %rsi
	movl	$1, %ecx
	call	_ZN8sparseSA7findMAMERSsiiRSt6vectorI7match_tSaIS2_EEiRlb
.LVL212:
	jmp	.L67
.LVL213:
.L140:
.LBE1474:
.LBE1473:
	.loc 5 148 0 discriminator 1
	movl	min_len(%rip), %r8d
	leaq	120(%rsp), %r9
	movq	%rbp, %rsi
	movl	chunks(%rip), %edx
	movl	$0, (%rsp)
	leaq	128(%rsp), %rcx
.LVL214:
	movq	sa(%rip), %rdi
	call	_ZN8sparseSA11MUMParallelERSsiRSt6vectorI7match_tSaIS2_EEiRlb
.LVL215:
	jmp	.L71
.L139:
	.loc 5 147 0 discriminator 1
	movq	sa(%rip), %rdi
.LVL216:
	movl	min_len(%rip), %r9d
.LVL217:
.LBB1475:
.LBB1476:
	.loc 10 190 0 discriminator 1
	cmpq	$1, 192(%rdi)
	jne	.L71
	.loc 10 191 0
	leaq	120(%rsp), %rax
.LVL218:
	movl	$0, 8(%rsp)
	xorl	%edx, %edx
	movq	%rax, (%rsp)
	leaq	128(%rsp), %r8
.LVL219:
	movq	%rbp, %rsi
	movl	$1, %ecx
	call	_ZN8sparseSA7findMAMERSsiiRSt6vectorI7match_tSaIS2_EEiRlb
.LEHE6:
.LVL220:
	jmp	.L71
.LBE1476:
.LBE1475:
.LBE1478:
	.cfi_endproc
.LFE6858:
	.globl	__gxx_personality_v0
	.section	.gcc_except_table,"a",@progbits
.LLSDA6858:
	.byte	0xff
	.byte	0xff
	.byte	0x1
	.uleb128 .LLSDACSE6858-.LLSDACSB6858
.LLSDACSB6858:
	.uleb128 .LEHB0-.LFB6858
	.uleb128 .LEHE0-.LEHB0
	.uleb128 .L84-.LFB6858
	.uleb128 0
	.uleb128 .LEHB1-.LFB6858
	.uleb128 .LEHE1-.LEHB1
	.uleb128 .L85-.LFB6858
	.uleb128 0
	.uleb128 .LEHB2-.LFB6858
	.uleb128 .LEHE2-.LEHB2
	.uleb128 .L86-.LFB6858
	.uleb128 0
	.uleb128 .LEHB3-.LFB6858
	.uleb128 .LEHE3-.LEHB3
	.uleb128 .L85-.LFB6858
	.uleb128 0
	.uleb128 .LEHB4-.LFB6858
	.uleb128 .LEHE4-.LEHB4
	.uleb128 .L87-.LFB6858
	.uleb128 0
	.uleb128 .LEHB5-.LFB6858
	.uleb128 .LEHE5-.LEHB5
	.uleb128 0
	.uleb128 0
	.uleb128 .LEHB6-.LFB6858
	.uleb128 .LEHE6-.LEHB6
	.uleb128 .L85-.LFB6858
	.uleb128 0
.LLSDACSE6858:
	.text
	.size	_Z12query_threadPv, .-_Z12query_threadPv
	.section	.text._ZN8sparseSAD2Ev,"axG",@progbits,_ZN8sparseSAD5Ev,comdat
	.align 2
	.p2align 4,,15
	.weak	_ZN8sparseSAD2Ev
	.type	_ZN8sparseSAD2Ev, @function
_ZN8sparseSAD2Ev:
.LFB6868:
	.loc 10 75 0
	.cfi_startproc
.LVL221:
	pushq	%rbx
.LCFI11:
	.cfi_def_cfa_offset 16
	.cfi_offset 3, -16
	.loc 10 75 0
	movq	%rdi, %rbx
.LBB1543:
.LBB1544:
.LBB1545:
	.loc 7 161 0
	movq	168(%rdi), %rdi
.LVL222:
.LBB1546:
.LBB1547:
	.loc 7 174 0
	testq	%rdi, %rdi
	je	.L150
.LVL223:
.LBB1548:
.LBB1549:
	.loc 9 100 0
	call	_ZdlPv
.LVL224:
.L150:
.LBE1549:
.LBE1548:
.LBE1547:
.LBE1546:
.LBE1545:
.LBE1544:
.LBE1543:
.LBB1550:
.LBB1551:
.LBB1552:
.LBB1553:
	.loc 7 161 0
	movq	136(%rbx), %rdi
.LVL225:
.LBB1554:
.LBB1555:
	.loc 7 174 0
	testq	%rdi, %rdi
	je	.L151
.LVL226:
.LBB1556:
.LBB1557:
	.loc 9 100 0
	call	_ZdlPv
.LVL227:
.L151:
.LBE1557:
.LBE1556:
.LBE1555:
.LBE1554:
.LBE1553:
.LBE1552:
.LBE1551:
.LBB1558:
.LBB1559:
.LBB1560:
	.loc 7 161 0
	movq	112(%rbx), %rdi
.LVL228:
.LBB1561:
.LBB1562:
	.loc 7 174 0
	testq	%rdi, %rdi
	je	.L152
.LVL229:
.LBB1563:
.LBB1564:
	.loc 9 100 0
	call	_ZdlPv
.LVL230:
.L152:
.LBE1564:
.LBE1563:
.LBE1562:
.LBE1561:
.LBE1560:
.LBE1559:
.LBE1558:
.LBE1550:
.LBB1565:
.LBB1566:
.LBB1567:
	.loc 7 161 0
	movq	88(%rbx), %rdi
.LVL231:
.LBB1568:
.LBB1569:
	.loc 7 174 0
	testq	%rdi, %rdi
	je	.L153
.LVL232:
.LBB1570:
.LBB1571:
	.loc 9 100 0
	call	_ZdlPv
.LVL233:
.L153:
.LBE1571:
.LBE1570:
.LBE1569:
.LBE1568:
.LBE1567:
.LBE1566:
.LBE1565:
.LBB1572:
.LBB1573:
.LBB1574:
	.loc 7 161 0
	movq	64(%rbx), %rdi
.LVL234:
.LBB1575:
.LBB1576:
	.loc 7 174 0
	testq	%rdi, %rdi
	je	.L149
.LVL235:
.LBE1576:
.LBE1575:
.LBE1574:
.LBE1573:
.LBE1572:
	.loc 10 75 0
	popq	%rbx
.LCFI12:
	.cfi_remember_state
	.cfi_def_cfa_offset 8
.LVL236:
.LBB1583:
.LBB1582:
.LBB1581:
.LBB1580:
.LBB1579:
.LBB1577:
.LBB1578:
	.loc 9 100 0
	jmp	_ZdlPv
.LVL237:
	.p2align 4,,10
	.p2align 3
.L149:
.LCFI13:
	.cfi_restore_state
.LBE1578:
.LBE1577:
.LBE1579:
.LBE1580:
.LBE1581:
.LBE1582:
.LBE1583:
	.loc 10 75 0
	popq	%rbx
.LCFI14:
	.cfi_def_cfa_offset 8
.LVL238:
	ret
	.cfi_endproc
.LFE6868:
	.size	_ZN8sparseSAD2Ev, .-_ZN8sparseSAD2Ev
	.weak	_ZN8sparseSAD1Ev
	.set	_ZN8sparseSAD1Ev,_ZN8sparseSAD2Ev
	.section	.rodata.str1.1
.LC5:
	.string	"Usage: "
	.section	.rodata.str1.8,"aMS",@progbits,1
	.align 8
.LC6:
	.string	" [options] <reference-file> <query-file>"
	.align 8
.LC7:
	.string	"Implemented MUMmer v3 options:"
	.align 8
.LC8:
	.string	"-mum           compute maximal matches that are unique in both sequences"
	.align 8
.LC9:
	.string	"-mumreference  compute maximal matches that are unique in the reference-"
	.align 8
.LC10:
	.string	"               sequence but not necessarily in the query-sequence (default)"
	.align 8
.LC11:
	.string	"-mumcand       same as -mumreference"
	.align 8
.LC12:
	.string	"-maxmatch      compute all maximal matches regardless of their uniqueness"
	.align 8
.LC13:
	.string	"-l             set the minimum length of a match"
	.align 8
.LC14:
	.string	"               if not set, the default value is 20"
	.align 8
.LC15:
	.string	"-b             compute forward and reverse complement matches"
	.align 8
.LC16:
	.string	"-F             force 4 column output format regardless of the number of"
	.align 8
.LC17:
	.string	"               reference sequence inputs"
	.align 8
.LC18:
	.string	"-n             match only the characters a, c, g, or t"
	.align 8
.LC19:
	.string	"-L             print length of query sequence in header of matches"
	.align 8
.LC20:
	.string	"-r             compute only reverse complement matches"
	.align 8
.LC21:
	.string	"-s             print first 53 characters of the matching substring"
	.align 8
.LC22:
	.string	"-chunks        number of chunks to split query"
	.text
	.p2align 4,,15
	.globl	_Z5usageSs
	.type	_Z5usageSs, @function
_Z5usageSs:
.LFB6870:
	.loc 5 302 0
	.cfi_startproc
.LVL239:
	pushq	%rbx
.LCFI15:
	.cfi_def_cfa_offset 16
	.cfi_offset 3, -16
	.loc 5 302 0
	movq	%rdi, %rbx
	.loc 5 303 0
	movl	$.LC5, %edi
.LVL240:
	call	_ZStlsISt11char_traitsIcEERSt13basic_ostreamIcT_ES5_PKc.constprop.68
.LVL241:
	movq	%rbx, %rsi
	movq	%rax, %rdi
	call	_ZStlsIcSt11char_traitsIcESaIcEERSt13basic_ostreamIT_T0_ES7_RKSbIS4_S5_T1_E
.LVL242:
	movl	$.LC6, %esi
	movq	%rax, %rdi
	call	_ZStlsISt11char_traitsIcEERSt13basic_ostreamIcT_ES5_PKc
.LVL243:
.LBB1584:
.LBB1585:
	.loc 1 111 0
	movq	%rax, %rdi
	call	_ZSt4endlIcSt11char_traitsIcEERSt13basic_ostreamIT_T0_ES6_
.LVL244:
.LBE1585:
.LBE1584:
	.loc 5 304 0
	movl	$.LC7, %edi
	call	_ZStlsISt11char_traitsIcEERSt13basic_ostreamIcT_ES5_PKc.constprop.68
.LVL245:
.LBB1586:
.LBB1587:
	.loc 1 111 0
	movq	%rax, %rdi
	call	_ZSt4endlIcSt11char_traitsIcEERSt13basic_ostreamIT_T0_ES6_
.LVL246:
.LBE1587:
.LBE1586:
	.loc 5 305 0
	movl	$.LC8, %edi
	call	_ZStlsISt11char_traitsIcEERSt13basic_ostreamIcT_ES5_PKc.constprop.68
.LVL247:
.LBB1588:
.LBB1589:
	.loc 1 111 0
	movq	%rax, %rdi
	call	_ZSt4endlIcSt11char_traitsIcEERSt13basic_ostreamIT_T0_ES6_
.LVL248:
.LBE1589:
.LBE1588:
	.loc 5 306 0
	movl	$.LC9, %edi
	call	_ZStlsISt11char_traitsIcEERSt13basic_ostreamIcT_ES5_PKc.constprop.68
.LVL249:
.LBB1590:
.LBB1591:
	.loc 1 111 0
	movq	%rax, %rdi
	call	_ZSt4endlIcSt11char_traitsIcEERSt13basic_ostreamIT_T0_ES6_
.LVL250:
.LBE1591:
.LBE1590:
	.loc 5 307 0
	movl	$.LC10, %edi
	call	_ZStlsISt11char_traitsIcEERSt13basic_ostreamIcT_ES5_PKc.constprop.68
.LVL251:
.LBB1592:
.LBB1593:
	.loc 1 111 0
	movq	%rax, %rdi
	call	_ZSt4endlIcSt11char_traitsIcEERSt13basic_ostreamIT_T0_ES6_
.LVL252:
.LBE1593:
.LBE1592:
	.loc 5 308 0
	movl	$.LC11, %edi
	call	_ZStlsISt11char_traitsIcEERSt13basic_ostreamIcT_ES5_PKc.constprop.68
.LVL253:
.LBB1594:
.LBB1595:
	.loc 1 111 0
	movq	%rax, %rdi
	call	_ZSt4endlIcSt11char_traitsIcEERSt13basic_ostreamIT_T0_ES6_
.LVL254:
.LBE1595:
.LBE1594:
	.loc 5 309 0
	movl	$.LC12, %edi
	call	_ZStlsISt11char_traitsIcEERSt13basic_ostreamIcT_ES5_PKc.constprop.68
.LVL255:
.LBB1596:
.LBB1597:
	.loc 1 111 0
	movq	%rax, %rdi
	call	_ZSt4endlIcSt11char_traitsIcEERSt13basic_ostreamIT_T0_ES6_
.LVL256:
.LBE1597:
.LBE1596:
	.loc 5 310 0
	movl	$.LC13, %edi
	call	_ZStlsISt11char_traitsIcEERSt13basic_ostreamIcT_ES5_PKc.constprop.68
.LVL257:
.LBB1598:
.LBB1599:
	.loc 1 111 0
	movq	%rax, %rdi
	call	_ZSt4endlIcSt11char_traitsIcEERSt13basic_ostreamIT_T0_ES6_
.LVL258:
.LBE1599:
.LBE1598:
	.loc 5 311 0
	movl	$.LC14, %edi
	call	_ZStlsISt11char_traitsIcEERSt13basic_ostreamIcT_ES5_PKc.constprop.68
.LVL259:
.LBB1600:
.LBB1601:
	.loc 1 111 0
	movq	%rax, %rdi
	call	_ZSt4endlIcSt11char_traitsIcEERSt13basic_ostreamIT_T0_ES6_
.LVL260:
.LBE1601:
.LBE1600:
	.loc 5 312 0
	movl	$.LC15, %edi
	call	_ZStlsISt11char_traitsIcEERSt13basic_ostreamIcT_ES5_PKc.constprop.68
.LVL261:
.LBB1602:
.LBB1603:
	.loc 1 111 0
	movq	%rax, %rdi
	call	_ZSt4endlIcSt11char_traitsIcEERSt13basic_ostreamIT_T0_ES6_
.LVL262:
.LBE1603:
.LBE1602:
	.loc 5 313 0
	movl	$.LC16, %edi
	call	_ZStlsISt11char_traitsIcEERSt13basic_ostreamIcT_ES5_PKc.constprop.68
.LVL263:
.LBB1604:
.LBB1605:
	.loc 1 111 0
	movq	%rax, %rdi
	call	_ZSt4endlIcSt11char_traitsIcEERSt13basic_ostreamIT_T0_ES6_
.LVL264:
.LBE1605:
.LBE1604:
	.loc 5 314 0
	movl	$.LC17, %edi
	call	_ZStlsISt11char_traitsIcEERSt13basic_ostreamIcT_ES5_PKc.constprop.68
.LVL265:
.LBB1606:
.LBB1607:
	.loc 1 111 0
	movq	%rax, %rdi
	call	_ZSt4endlIcSt11char_traitsIcEERSt13basic_ostreamIT_T0_ES6_
.LVL266:
.LBE1607:
.LBE1606:
	.loc 5 315 0
	movl	$.LC18, %edi
	call	_ZStlsISt11char_traitsIcEERSt13basic_ostreamIcT_ES5_PKc.constprop.68
.LVL267:
.LBB1608:
.LBB1609:
	.loc 1 111 0
	movq	%rax, %rdi
	call	_ZSt4endlIcSt11char_traitsIcEERSt13basic_ostreamIT_T0_ES6_
.LVL268:
.LBE1609:
.LBE1608:
	.loc 5 316 0
	movl	$.LC19, %edi
	call	_ZStlsISt11char_traitsIcEERSt13basic_ostreamIcT_ES5_PKc.constprop.68
.LVL269:
.LBB1610:
.LBB1611:
	.loc 1 111 0
	movq	%rax, %rdi
	call	_ZSt4endlIcSt11char_traitsIcEERSt13basic_ostreamIT_T0_ES6_
.LVL270:
.LBE1611:
.LBE1610:
	.loc 5 317 0
	movl	$.LC20, %edi
	call	_ZStlsISt11char_traitsIcEERSt13basic_ostreamIcT_ES5_PKc.constprop.68
.LVL271:
.LBB1612:
.LBB1613:
	.loc 1 111 0
	movq	%rax, %rdi
	call	_ZSt4endlIcSt11char_traitsIcEERSt13basic_ostreamIT_T0_ES6_
.LVL272:
.LBE1613:
.LBE1612:
	.loc 5 318 0
	movl	$.LC21, %edi
	call	_ZStlsISt11char_traitsIcEERSt13basic_ostreamIcT_ES5_PKc.constprop.68
.LVL273:
.LBB1614:
.LBB1615:
	.loc 1 111 0
	movq	%rax, %rdi
	call	_ZSt4endlIcSt11char_traitsIcEERSt13basic_ostreamIT_T0_ES6_
.LVL274:
.LBE1615:
.LBE1614:
	.loc 5 319 0
	movl	$.LC22, %edi
	call	_ZStlsISt11char_traitsIcEERSt13basic_ostreamIcT_ES5_PKc.constprop.68
.LVL275:
.LBB1616:
.LBB1617:
	.loc 1 111 0
	movq	%rax, %rdi
	call	_ZSt4endlIcSt11char_traitsIcEERSt13basic_ostreamIT_T0_ES6_
.LVL276:
.LBE1617:
.LBE1616:
.LBB1618:
.LBB1619:
	movl	$_ZSt4cerr, %edi
	call	_ZSt4endlIcSt11char_traitsIcEERSt13basic_ostreamIT_T0_ES6_
.LVL277:
.LBE1619:
.LBE1618:
	.loc 5 322 0
	movl	$1, %edi
	call	exit
.LVL278:
	.cfi_endproc
.LFE6870:
	.size	_Z5usageSs, .-_Z5usageSs
	.section	.text._ZNSt6vectorISsSaISsEED2Ev,"axG",@progbits,_ZNSt6vectorISsSaISsEED5Ev,comdat
	.align 2
	.p2align 4,,15
	.weak	_ZNSt6vectorISsSaISsEED2Ev
	.type	_ZNSt6vectorISsSaISsEED2Ev, @function
_ZNSt6vectorISsSaISsEED2Ev:
.LFB7048:
	.loc 7 402 0
	.cfi_startproc
.LVL279:
	pushq	%r12
.LCFI16:
	.cfi_def_cfa_offset 16
	.cfi_offset 12, -16
	movq	%rdi, %r12
	pushq	%rbp
.LCFI17:
	.cfi_def_cfa_offset 24
	.cfi_offset 6, -24
	pushq	%rbx
.LCFI18:
	.cfi_def_cfa_offset 32
	.cfi_offset 3, -32
	subq	$16, %rsp
.LCFI19:
	.cfi_def_cfa_offset 48
.LBB1653:
	.loc 7 403 0
	movq	8(%rdi), %rbp
	movq	(%rdi), %rbx
.LVL280:
.LBB1654:
.LBB1655:
.LBB1656:
.LBB1657:
.LBB1658:
.LBB1659:
	.file 11 "/usr/local/lib/gcc/x86_64-unknown-linux-gnu/4.7.2/../../../../include/c++/4.7.2/bits/stl_construct.h"
	.loc 11 104 0
	cmpq	%rbx, %rbp
	je	.L171
	movl	$_ZL22__gthrw_pthread_cancelm, %eax
	testq	%rax, %rax
	je	.L186
.LVL281:
	.p2align 4,,10
	.p2align 3
.L187:
.LBB1660:
.LBB1661:
.LBB1662:
.LBB1663:
.LBB1664:
.LBB1665:
	.loc 6 290 0
	movq	(%rbx), %rax
.LBE1665:
.LBE1664:
.LBE1663:
	.loc 6 536 0
	leaq	-24(%rax), %rdi
.LVL282:
.LBB1668:
.LBB1669:
	.loc 6 237 0
	cmpq	$_ZNSs4_Rep20_S_empty_rep_storageE, %rdi
	jne	.L193
.LVL283:
.L178:
.LBE1669:
.LBE1668:
.LBE1662:
.LBE1661:
.LBE1660:
	.loc 11 104 0
	addq	$8, %rbx
.LVL284:
	cmpq	%rbx, %rbp
	jne	.L187
.LVL285:
.L176:
	movq	(%r12), %rbx
.LVL286:
.L171:
.LBE1659:
.LBE1658:
.LBE1657:
.LBE1656:
.LBE1655:
.LBE1654:
.LBB1700:
.LBB1701:
.LBB1702:
	.loc 7 174 0
	testq	%rbx, %rbx
	je	.L170
.LVL287:
.LBB1703:
.LBB1704:
	.loc 9 100 0
	movq	%rbx, %rdi
	call	_ZdlPv
.LVL288:
.L170:
.LBE1704:
.LBE1703:
.LBE1702:
.LBE1701:
.LBE1700:
.LBE1653:
	.loc 7 404 0
	addq	$16, %rsp
.LCFI20:
	.cfi_remember_state
	.cfi_def_cfa_offset 32
	popq	%rbx
.LCFI21:
	.cfi_def_cfa_offset 24
.LVL289:
	popq	%rbp
.LCFI22:
	.cfi_def_cfa_offset 16
.LVL290:
	popq	%r12
.LCFI23:
	.cfi_def_cfa_offset 8
.LVL291:
	ret
.LVL292:
.L193:
.LCFI24:
	.cfi_restore_state
.LBB1706:
.LBB1705:
.LBB1699:
.LBB1698:
.LBB1697:
.LBB1696:
.LBB1695:
.LBB1693:
.LBB1691:
.LBB1689:
.LBB1685:
.LBB1682:
.LBB1670:
.LBB1671:
.LBB1672:
.LBB1673:
	.file 12 "/usr/local/lib/gcc/x86_64-unknown-linux-gnu/4.7.2/../../../../include/c++/4.7.2/ext/atomicity.h"
	.loc 12 48 0
	movl	$-1, %ecx
	lock xaddl	%ecx, -8(%rax)
.LBE1673:
.LBE1672:
.LBE1671:
.LBE1670:
	.loc 6 242 0
	testl	%ecx, %ecx
	jg	.L178
	.loc 6 246 0
	leaq	15(%rsp), %rsi
.LVL293:
	call	_ZNSs4_Rep10_M_destroyERKSaIcE
.LVL294:
	jmp	.L178
.LVL295:
.L186:
.LBE1682:
.LBE1685:
.LBB1686:
.LBB1667:
.LBB1666:
	.loc 6 290 0
	movq	(%rbx), %rax
.LBE1666:
.LBE1667:
.LBE1686:
	.loc 6 536 0
	leaq	-24(%rax), %rdi
.LVL296:
.LBB1687:
.LBB1683:
	.loc 6 237 0
	cmpq	$_ZNSs4_Rep20_S_empty_rep_storageE, %rdi
	jne	.L194
.LVL297:
.L174:
.LBE1683:
.LBE1687:
.LBE1689:
.LBE1691:
.LBE1693:
	.loc 11 104 0
	addq	$8, %rbx
.LVL298:
	cmpq	%rbx, %rbp
	jne	.L186
	jmp	.L176
.LVL299:
.L194:
.LBB1694:
.LBB1692:
.LBB1690:
.LBB1688:
.LBB1684:
.LBB1680:
.LBB1678:
.LBB1674:
.LBB1675:
	.loc 12 66 0
	movl	-8(%rax), %edx
.LVL300:
	.loc 12 67 0
	leal	-1(%rdx), %ecx
.LBE1675:
.LBE1674:
.LBE1678:
.LBE1680:
	.loc 6 242 0
	testl	%edx, %edx
.LBB1681:
.LBB1679:
.LBB1677:
.LBB1676:
	.loc 12 67 0
	movl	%ecx, -8(%rax)
.LBE1676:
.LBE1677:
.LBE1679:
.LBE1681:
	.loc 6 242 0
	jg	.L174
	.loc 6 246 0
	leaq	15(%rsp), %rsi
.LVL301:
	call	_ZNSs4_Rep10_M_destroyERKSaIcE
.LVL302:
	jmp	.L174
.LBE1684:
.LBE1688:
.LBE1690:
.LBE1692:
.LBE1694:
.LBE1695:
.LBE1696:
.LBE1697:
.LBE1698:
.LBE1699:
.LBE1705:
.LBE1706:
	.cfi_endproc
.LFE7048:
	.size	_ZNSt6vectorISsSaISsEED2Ev, .-_ZNSt6vectorISsSaISsEED2Ev
	.weak	_ZNSt6vectorISsSaISsEED1Ev
	.set	_ZNSt6vectorISsSaISsEED1Ev,_ZNSt6vectorISsSaISsEED2Ev
	.section	.rodata.str1.1
.LC24:
	.string	"Invalid parameters."
	.section	.rodata.str1.8
	.align 8
.LC25:
	.string	"-k option valid only for -maxmatch"
	.align 8
.LC26:
	.string	"invalid number of threads specified"
	.align 8
.LC27:
	.string	"skip parameter was decreased to "
	.align 8
.LC28:
	.string	" because skip*K > minimum length"
	.align 8
.LC29:
	.string	"note that the skip parameter is very high, a value of "
	.section	.rodata.str1.1
.LC30:
	.string	" or "
.LC31:
	.string	" would be more appropriate"
	.section	.rodata.str1.8
	.align 8
.LC32:
	.string	"ERROR -r and -b options are mutually exclusive"
	.section	.rodata.str1.1
.LC34:
	.string	",RSS="
	.section	.text.startup,"ax",@progbits
	.p2align 4,,15
	.globl	main
	.type	main, @function
main:
.LFB6860:
	.loc 5 170 0
	.cfi_startproc
	.cfi_personality 0x3,__gxx_personality_v0
	.cfi_lsda 0x3,.LLSDA6860
.LVL303:
	pushq	%r15
.LCFI25:
	.cfi_def_cfa_offset 16
	.cfi_offset 15, -16
	pushq	%r14
.LCFI26:
	.cfi_def_cfa_offset 24
	.cfi_offset 14, -24
	pushq	%r13
.LCFI27:
	.cfi_def_cfa_offset 32
	.cfi_offset 13, -32
	pushq	%r12
.LCFI28:
	.cfi_def_cfa_offset 40
	.cfi_offset 12, -40
	pushq	%rbp
.LCFI29:
	.cfi_def_cfa_offset 48
	.cfi_offset 6, -48
	movl	%edi, %ebp
	pushq	%rbx
.LCFI30:
	.cfi_def_cfa_offset 56
	.cfi_offset 3, -56
	movq	%rsi, %rbx
	subq	$408, %rsp
.LCFI31:
	.cfi_def_cfa_offset 464
.LVL304:
	.p2align 4,,10
	.p2align 3
.L321:
.LBB1889:
.LBB1890:
	.loc 5 195 0
	leaq	64(%rsp), %r8
	movl	$_ZZ4mainE12long_options, %ecx
	movl	$.LC1, %edx
	movq	%rbx, %rsi
	movl	%ebp, %edi
	.loc 5 194 0
	movl	$-1, 64(%rsp)
.LVL305:
	.loc 5 195 0
	call	getopt_long_only
.LVL306:
	.loc 5 196 0
	cmpl	$-1, %eax
	je	.L196
	.loc 5 197 0
	cmpl	$63, %eax
	je	.L328
	.loc 5 203 0
	cmpl	$16, 64(%rsp)
	ja	.L321
	movl	64(%rsp), %eax
.LVL307:
	jmp	*.L216(,%rax,8)
.LVL308:
	.section	.rodata
	.align 8
	.align 4
.L216:
	.quad	.L199
	.quad	.L204
	.quad	.L201
	.quad	.L202
	.quad	.L203
	.quad	.L204
	.quad	.L205
	.quad	.L206
	.quad	.L207
	.quad	.L208
	.quad	.L209
	.quad	.L210
	.quad	.L211
	.quad	.L212
	.quad	.L213
	.quad	.L214
	.quad	.L215
	.section	.text.startup
	.p2align 4,,10
	.p2align 3
.L204:
	.loc 5 209 0
	movl	$1, type(%rip)
	jmp	.L321
	.p2align 4,,10
	.p2align 3
.L203:
	.loc 5 208 0
	movl	$0, type(%rip)
	jmp	.L321
	.p2align 4,,10
	.p2align 3
.L202:
	.loc 5 207 0
	movl	$2, type(%rip)
	jmp	.L321
	.p2align 4,,10
	.p2align 3
.L201:
	.loc 5 206 0
	movb	$1, setBoth(%rip)
	jmp	.L321
	.p2align 4,,10
	.p2align 3
.L214:
	.loc 5 219 0
	movb	$1, setRevComp(%rip)
	jmp	.L321
	.p2align 4,,10
	.p2align 3
.L199:
.LVL309:
.LBB1891:
.LBB1892:
	.file 13 "/usr/include/stdlib.h"
	.loc 13 291 0
	movq	optarg(%rip), %rdi
	movl	$10, %edx
	xorl	%esi, %esi
	call	strtol
.LVL310:
.LBE1892:
.LBE1891:
	.loc 5 204 0
	movl	%eax, min_len(%rip)
	jmp	.L321
.LVL311:
	.p2align 4,,10
	.p2align 3
.L215:
	.loc 5 220 0
	movb	$1, printSubstring(%rip)
.LBE1890:
	.loc 5 173 0
	jmp	.L321
	.p2align 4,,10
	.p2align 3
.L213:
.LBB1911:
	.loc 5 218 0
	movb	$1, print_length(%rip)
	jmp	.L321
	.p2align 4,,10
	.p2align 3
.L212:
.LVL312:
.LBB1893:
.LBB1894:
	.loc 13 286 0
	movq	optarg(%rip), %rdi
	movl	$10, %edx
	xorl	%esi, %esi
	call	strtol
.LVL313:
.LBE1894:
.LBE1893:
	.loc 5 217 0
	movb	$0, automaticSkip(%rip)
.LBB1896:
.LBB1895:
	.loc 13 286 0
	movl	%eax, sparseMult(%rip)
.LBE1895:
.LBE1896:
	.loc 5 217 0
	jmp	.L321
.LVL314:
	.p2align 4,,10
	.p2align 3
.L211:
.LBB1897:
.LBB1898:
	.loc 13 286 0
	movq	optarg(%rip), %rdi
	movl	$10, %edx
	xorl	%esi, %esi
	call	strtol
.LVL315:
.LBE1898:
.LBE1897:
	.loc 5 216 0
	movb	$0, automatic(%rip)
.LBB1900:
.LBB1899:
	.loc 13 286 0
	movl	%eax, chunks(%rip)
.LBE1899:
.LBE1900:
	.loc 5 216 0
	jmp	.L321
.LVL316:
	.p2align 4,,10
	.p2align 3
.L210:
.LBB1901:
.LBB1902:
	.loc 13 286 0
	movq	optarg(%rip), %rdi
	xorl	%esi, %esi
	movl	$10, %edx
	call	strtol
.LVL317:
.LBE1902:
.LBE1901:
	.loc 5 215 0
	movb	$0, automatic(%rip)
	testl	%eax, %eax
	setg	suflink(%rip)
	jmp	.L321
.LVL318:
	.p2align 4,,10
	.p2align 3
.L209:
.LBB1903:
.LBB1904:
	.loc 13 286 0
	movq	optarg(%rip), %rdi
	movl	$10, %edx
	xorl	%esi, %esi
	call	strtol
.LVL319:
	movl	%eax, query_threads(%rip)
.LBE1904:
.LBE1903:
	.loc 5 214 0
	jmp	.L321
.LVL320:
	.p2align 4,,10
	.p2align 3
.L208:
	.loc 5 213 0
	movb	$1, nucleotides_only(%rip)
	jmp	.L321
	.p2align 4,,10
	.p2align 3
.L207:
.LVL321:
.LBB1905:
.LBB1906:
	.loc 13 286 0
	movq	optarg(%rip), %rdi
	movl	$10, %edx
	xorl	%esi, %esi
	call	strtol
.LVL322:
	movl	%eax, num_threads(%rip)
.LBE1906:
.LBE1905:
	.loc 5 212 0
	jmp	.L321
.LVL323:
	.p2align 4,,10
	.p2align 3
.L206:
.LBB1907:
.LBB1908:
	.loc 13 286 0
	movq	optarg(%rip), %rdi
	movl	$10, %edx
	xorl	%esi, %esi
	call	strtol
.LVL324:
	movl	%eax, K(%rip)
.LBE1908:
.LBE1907:
	.loc 5 211 0
	jmp	.L321
.LVL325:
	.p2align 4,,10
	.p2align 3
.L205:
	.loc 5 210 0
	movb	$1, _4column(%rip)
	jmp	.L321
.LVL326:
	.p2align 4,,10
	.p2align 3
.L196:
.LBE1911:
	.loc 5 225 0
	movslq	optind(%rip), %rax
.LVL327:
	subl	%eax, %ebp
.LVL328:
	cmpl	$2, %ebp
	jne	.L329
	.loc 5 227 0
	cmpl	$1, K(%rip)
	je	.L219
	.loc 5 227 0 is_stmt 0 discriminator 1
	cmpl	$2, type(%rip)
	jne	.L330
.L219:
	.loc 5 228 0 is_stmt 1
	movl	num_threads(%rip), %edx
	testl	%edx, %edx
	jle	.L331
.LVL329:
.LBB1912:
	.loc 5 230 0
	movq	(%rbx,%rax,8), %rsi
	leaq	80(%rsp), %rdi
	leaq	63(%rsp), %rdx
.LVL330:
.LEHB7:
	call	_ZNSsC1EPKcRKSaIcE
.LEHE7:
.LVL331:
	.loc 5 231 0
	movslq	optind(%rip), %rax
	movl	$query_fasta, %edi
	movq	8(%rbx,%rax,8), %rsi
.LEHB8:
	call	_ZNSsaSEPKc
.LEHE8:
.LVL332:
	leaq	128(%rsp), %rax
.LBB1913:
.LBB1914:
.LBB1915:
	.loc 6 272 0
	movq	$_ZNSs4_Rep20_S_empty_rep_storageE+24, 96(%rsp)
.LVL333:
	movq	%rax, 40(%rsp)
.LBE1915:
.LBE1914:
.LBE1913:
	.loc 5 238 0
	leaq	80(%rsp), %rsi
	leaq	96(%rsp), %rax
.LVL334:
.LBB1916:
.LBB1917:
.LBB1918:
.LBB1919:
	.loc 7 88 0
	movq	$0, 128(%rsp)
.LBE1919:
.LBE1918:
.LBE1917:
.LBE1916:
	.loc 5 238 0
	leaq	112(%rsp), %rdi
.LBB1923:
.LBB1922:
.LBB1921:
.LBB1920:
	.loc 7 88 0
	movq	$0, 136(%rsp)
	movq	$0, 144(%rsp)
.LVL335:
.LBE1920:
.LBE1921:
.LBE1922:
.LBE1923:
.LBB1924:
.LBB1925:
.LBB1926:
.LBB1927:
	movq	$0, 160(%rsp)
	movq	$0, 168(%rsp)
	movq	$0, 176(%rsp)
	movq	%rax, 32(%rsp)
.LEHB9:
.LBE1927:
.LBE1926:
.LBE1925:
.LBE1924:
	.loc 5 238 0
	call	_ZNSsC1ERKSs
.LEHE9:
.LVL336:
	.loc 5 238 0 is_stmt 0 discriminator 1
	leaq	128(%rsp), %rax
	movq	%rax, 40(%rsp)
	leaq	96(%rsp), %rax
	movq	40(%rsp), %rdx
	leaq	160(%rsp), %rcx
.LVL337:
	movq	%rax, %rsi
	leaq	112(%rsp), %rdi
	movq	%rax, 32(%rsp)
.LEHB10:
	call	_Z10load_fastaSsRSsRSt6vectorISsSaISsEERS0_IlSaIlEE
.LEHE10:
.LVL338:
	leaq	112(%rsp), %rdi
	call	_ZNSsD1Ev
.LVL339:
.LBB1928:
.LBB1929:
	.loc 7 626 0 is_stmt 1 discriminator 1
	movq	168(%rsp), %rax
	subq	160(%rsp), %rax
.LBE1929:
.LBE1928:
	.loc 5 241 0 discriminator 1
	cmpq	$15, %rax
	jbe	.L221
	movb	$1, _4column(%rip)
.L221:
	.loc 5 242 0
	cmpb	$0, automatic(%rip)
	je	.L222
	.loc 5 243 0
	movl	K(%rip), %eax
	cmpl	$3, %eax
	setle	suflink(%rip)
	.loc 5 244 0
	setg	child(%rip)
.L222:
	.loc 5 246 0
	cmpb	$0, automaticSkip(%rip)
	je	.L223
	.loc 5 247 0
	cmpb	$0, suflink(%rip)
	je	.L224
	.loc 5 247 0 is_stmt 0 discriminator 1
	cmpb	$0, child(%rip)
	jne	.L224
	.loc 5 247 0 discriminator 2
	movl	$1, sparseMult(%rip)
.LVL340:
	.p2align 4,,10
	.p2align 3
.L225:
	.loc 5 265 0 is_stmt 1
	cmpb	$0, setBoth(%rip)
	je	.L229
	.loc 5 265 0 is_stmt 0 discriminator 1
	cmpb	$0, setRevComp(%rip)
	jne	.L332
.L230:
	.loc 5 271 0 is_stmt 1
	cmpb	$0, setRevComp(%rip)
	.loc 5 270 0
	movb	$1, rev_comp(%rip)
	.loc 5 271 0
	je	.L231
	.loc 5 272 0
	movb	$0, forwards(%rip)
.L231:
	.loc 5 274 0
	movl	$216, %edi
.LEHB11:
	call	_Znwm
.LEHE11:
.LVL341:
	movq	%rax, %rbx
	movzbl	printSubstring(%rip), %eax
	movq	40(%rsp), %rdx
	leaq	160(%rsp), %rcx
.LVL342:
	movq	%rbx, %rdi
	movslq	K(%rip), %r9
	movzbl	_4column(%rip), %r8d
	movl	%eax, 24(%rsp)
	movl	sparseMult(%rip), %eax
	movq	32(%rsp), %rsi
	movl	%eax, 16(%rsp)
	movzbl	child(%rip), %eax
	movl	%eax, 8(%rsp)
	movzbl	suflink(%rip), %eax
	movl	%eax, (%rsp)
.LEHB12:
	call	_ZN8sparseSAC1ERSsRSt6vectorISsSaISsEERS1_IlSaIlEEblbbib
.LEHE12:
.LVL343:
	.loc 5 276 0 discriminator 1
	leaq	192(%rsp), %rdi
	.loc 5 274 0 discriminator 1
	movq	%rbx, sa(%rip)
	.loc 5 276 0 discriminator 1
	call	pthread_attr_init
.LVL344:
	.loc 5 277 0 discriminator 1
	leaq	192(%rsp), %rdi
	xorl	%esi, %esi
	call	pthread_attr_setdetachstate
.LVL345:
	.loc 5 279 0 discriminator 1
	movl	query_threads(%rip), %esi
	movslq	%esi, %rbx
.LVL346:
.LBB1930:
.LBB1931:
.LBB1932:
.LBB1933:
.LBB1934:
	.loc 7 169 0 discriminator 1
	testq	%rbx, %rbx
	je	.L269
.LVL347:
.LBB1935:
.LBB1936:
	.loc 9 91 0
	movabsq	$2305843009213693951, %rax
	cmpq	%rax, %rbx
	ja	.L333
	.loc 9 94 0
	leaq	0(,%rbx,8), %rdi
.LEHB13:
	call	_Znwm
.LEHE13:
.LVL348:
	movq	%rbx, %rcx
	movq	%rax, %r12
.LVL349:
	shrq	%rcx
	.loc 5 170 0
	movq	%rcx, %rsi
	addq	%rsi, %rsi
	je	.L270
	cmpq	$2, %rbx
	jbe	.L270
.LBE1936:
.LBE1935:
.LBE1934:
.LBE1933:
.LBE1932:
.LBE1931:
.LBE1930:
	xorl	%eax, %eax
.LVL350:
.LBB1971:
.LBB1956:
.LBB1951:
.LBB1946:
.LBB1941:
.LBB1939:
.LBB1937:
	.file 14 "/usr/local/lib/gcc/x86_64-unknown-linux-gnu/4.7.2/../../../../include/c++/4.7.2/bits/stl_algobase.h"
	.loc 14 733 0
	pxor	%xmm0, %xmm0
.LVL351:
	.p2align 4,,10
	.p2align 3
.L235:
	.loc 5 170 0
	movq	%rax, %rdx
	addq	$1, %rax
	salq	$4, %rdx
	cmpq	%rax, %rcx
	.loc 14 733 0
	movdqu	%xmm0, (%r12,%rdx)
	ja	.L235
	leaq	(%r12,%rsi,8), %rax
	movq	%rbx, %rdx
	subq	%rsi, %rdx
	cmpq	%rsi, %rbx
	je	.L236
	.p2align 4,,10
	.p2align 3
.L237:
.LVL352:
.LBE1937:
.LBE1939:
.LBE1941:
.LBE1946:
.LBE1951:
.LBE1956:
.LBB1957:
.LBB1958:
.LBB1959:
.LBB1960:
.LBB1961:
.LBB1962:
	movl	$0, (%rax)
	movl	$0, 4(%rax)
	addq	$8, %rax
.LBB1963:
.LBB1964:
.LBB1965:
.LBB1966:
	.loc 14 731 0
	subq	$1, %rdx
.LVL353:
	jne	.L237
.LVL354:
.L236:
.LBE1966:
.LBE1965:
.LBE1964:
.LBE1963:
.LBE1962:
.LBE1961:
.LBE1960:
.LBE1959:
.LBE1958:
.LBE1957:
.LBE1971:
	.loc 5 280 0
	movl	query_threads(%rip), %esi
	movslq	%esi, %rbx
.LVL355:
.LBB1972:
.LBB1973:
.LBB1974:
.LBB1975:
.LBB1976:
	.loc 7 169 0
	testq	%rbx, %rbx
	je	.L271
.LVL356:
.LBB1977:
.LBB1978:
	.loc 9 91 0
	movabsq	$2305843009213693951, %rax
	cmpq	%rax, %rbx
	ja	.L334
	.loc 9 94 0
	leaq	0(,%rbx,8), %rdi
.LEHB14:
	call	_Znwm
.LEHE14:
.LVL357:
	.loc 5 170 0
	movq	%rax, %rsi
	.loc 9 94 0
	movq	%rax, %r13
.LVL358:
	.loc 5 170 0
	salq	$60, %rsi
	shrq	$63, %rsi
	cmpq	%rsi, %rbx
	cmovbe	%rbx, %rsi
	cmpq	$6, %rbx
	ja	.L335
.LBE1978:
.LBE1977:
.LBE1976:
.LBE1975:
.LBE1974:
.LBE1973:
.LBE1972:
	.loc 5 280 0
	movq	%rbx, %rsi
.L239:
	movq	%rbx, %rcx
	movq	%r13, %rax
.LVL359:
	xorl	%edx, %edx
.LVL360:
	.p2align 4,,10
	.p2align 3
.L241:
	addq	$1, %rdx
.LBB2028:
.LBB1987:
.LBB1988:
.LBB1989:
.LBB1990:
.LBB1991:
.LBB1992:
.LBB1993:
.LBB1994:
.LBB1995:
.LBB1996:
.LBB1997:
.LBB1998:
.LBB1999:
	.loc 14 745 0
	movq	$0, (%rax)
	.loc 14 743 0
	subq	$1, %rcx
.LVL361:
	addq	$8, %rax
.LVL362:
	cmpq	%rdx, %rsi
	ja	.L241
	cmpq	%rsi, %rbx
	je	.L324
.L240:
	subq	%rsi, %rbx
.LVL363:
	movq	%rbx, %rdi
	shrq	%rdi
	movq	%rdi, %r8
	addq	%r8, %r8
	je	.L243
	leaq	0(%r13,%rsi,8), %rsi
.LBE1999:
.LBE1998:
.LBE1997:
.LBE1996:
.LBE1995:
.LBE1994:
.LBE1993:
.LBE1992:
.LBE1991:
.LBE1990:
.LBE1989:
.LBE1988:
.LBE1987:
.LBE2028:
	.loc 7 169 0
	xorl	%edx, %edx
.LBB2029:
.LBB2024:
.LBB2022:
.LBB2020:
.LBB2018:
.LBB2016:
.LBB2014:
.LBB2012:
.LBB2010:
.LBB2008:
.LBB2006:
.LBB2004:
.LBB2002:
.LBB2000:
	.loc 14 745 0
	pxor	%xmm0, %xmm0
.LVL364:
	.p2align 4,,10
	.p2align 3
.L244:
	addq	$1, %rdx
	movdqa	%xmm0, (%rsi)
	addq	$16, %rsi
	cmpq	%rdi, %rdx
	jb	.L244
	leaq	(%rax,%r8,8), %rax
	subq	%r8, %rcx
	cmpq	%r8, %rbx
	je	.L324
.L243:
.LBE2000:
.LBE2002:
.LBE2004:
.LBE2006:
.LBE2008:
.LBE2010:
.LBE2012:
.LBE2014:
.LBE2016:
.LBE2018:
.LBE2020:
.LBE2022:
.LBE2024:
.LBE2029:
	.loc 7 169 0
	xorl	%edx, %edx
	.p2align 4,,10
	.p2align 3
.L246:
.LBB2030:
.LBB2025:
.LBB2023:
.LBB2021:
.LBB2019:
.LBB2017:
.LBB2015:
.LBB2013:
.LBB2011:
.LBB2009:
.LBB2007:
.LBB2005:
.LBB2003:
.LBB2001:
	.loc 14 745 0
	movq	$0, (%rax,%rdx,8)
	addq	$1, %rdx
	.loc 14 743 0
	cmpq	%rcx, %rdx
	jne	.L246
.L324:
	movl	query_threads(%rip), %esi
.LVL365:
.L232:
.LBE2001:
.LBE2003:
.LBE2005:
.LBE2007:
.LBE2009:
.LBE2011:
.LBE2013:
.LBE2015:
.LBE2017:
.LBE2019:
.LBE2021:
.LBE2023:
.LBE2025:
.LBE2030:
.LBB2031:
	.loc 5 283 0
	testl	%esi, %esi
	jle	.L247
	movl	%esi, %edi
	shrl	$2, %edi
	leal	0(,%rdi,4), %eax
	testl	%eax, %eax
	je	.L274
	cmpl	$4, %esi
	jbe	.L274
	movd	%esi, %xmm0
	movdqa	.LC33(%rip), %xmm3
	movq	%r12, %rdx
	pshufd	$0, %xmm0, %xmm1
.LBE2031:
.LBB2032:
.LBB1967:
.LBB1952:
.LBB1947:
.LBB1942:
	.loc 5 170 0
	movdqa	.LC23(%rip), %xmm0
	xorl	%ecx, %ecx
.LVL366:
	.p2align 4,,10
	.p2align 3
.L249:
.LBE1942:
.LBE1947:
.LBE1952:
.LBE1967:
.LBE2032:
.LBB2033:
	.loc 5 285 0 discriminator 2
	movdqa	%xmm0, %xmm2
	addl	$1, %ecx
	punpckldq	%xmm1, %xmm2
	movdqu	%xmm2, (%rdx)
	movdqa	%xmm0, %xmm2
	punpckhdq	%xmm1, %xmm2
	movdqu	%xmm2, 16(%rdx)
	addq	$32, %rdx
	cmpl	%edi, %ecx
	paddd	%xmm3, %xmm0
	jb	.L249
	cmpl	%eax, %esi
	je	.L250
.L248:
	.loc 5 284 0
	movslq	%eax, %rdx
	.loc 5 170 0
	leaq	4(%r12,%rdx,8), %rdx
	.p2align 4,,10
	.p2align 3
.L251:
.LVL367:
	.loc 5 285 0
	movl	%eax, -4(%rdx)
	.loc 5 283 0
	addl	$1, %eax
.LVL368:
	.loc 5 284 0
	movl	%esi, (%rdx)
.LVL369:
	addq	$8, %rdx
.LVL370:
	.loc 5 283 0
	cmpl	%esi, %eax
	jl	.L251
.LVL371:
.L250:
	movq	%r13, %rbp
	movq	%r12, %r15
.LBE2033:
.LBB2034:
.LBB1968:
.LBB1953:
.LBB1948:
.LBB1943:
	.loc 5 170 0
	movq	%r13, %r14
	xorl	%ebx, %ebx
.LVL372:
	.p2align 4,,10
	.p2align 3
.L252:
.LBE1943:
.LBE1948:
.LBE1953:
.LBE1968:
.LBE2034:
.LBB2035:
	.loc 5 290 0 discriminator 2
	movq	%r15, %rcx
	movq	%r14, %rdi
	movl	$_Z12query_threadPv, %edx
	leaq	192(%rsp), %rsi
	.loc 5 289 0 discriminator 2
	addl	$1, %ebx
.LVL373:
	addq	$8, %r14
	.loc 5 290 0 discriminator 2
	call	pthread_create
.LVL374:
	.loc 5 289 0 discriminator 2
	movl	query_threads(%rip), %eax
	addq	$8, %r15
	cmpl	%ebx, %eax
	jg	.L252
.LVL375:
.LBE2035:
.LBB2036:
	.loc 5 293 0 discriminator 1
	testl	%eax, %eax
	jle	.L247
	.loc 5 293 0 is_stmt 0
	xorl	%ebx, %ebx
.LVL376:
	.p2align 4,,10
	.p2align 3
.L253:
	.loc 5 294 0 is_stmt 1
	movq	0(%rbp), %rdi
	xorl	%esi, %esi
.LEHB15:
	call	pthread_join
.LVL377:
	.loc 5 293 0
	addl	$1, %ebx
.LVL378:
	addq	$8, %rbp
	cmpl	%ebx, query_threads(%rip)
	jg	.L253
.LVL379:
.L247:
.LBE2036:
	.loc 5 296 0
	leaq	256(%rsp), %rsi
	xorl	%edi, %edi
	call	getrusage
.LVL380:
	.loc 5 297 0
	movl	$.LC34, %edi
	movq	288(%rsp), %rbx
	call	_ZStlsISt11char_traitsIcEERSt13basic_ostreamIcT_ES5_PKc.constprop.68
.LVL381:
.LBB2037:
.LBB2038:
	.loc 1 165 0
	movq	%rbx, %rsi
	movq	%rax, %rdi
	call	_ZNSo9_M_insertIlEERSoT_
.LVL382:
.LBE2038:
.LBE2037:
.LBB2039:
.LBB2040:
	.loc 1 111 0 discriminator 1
	movq	%rax, %rdi
	call	_ZSt4endlIcSt11char_traitsIcEERSt13basic_ostreamIT_T0_ES6_
.LEHE15:
.LVL383:
.LBE2040:
.LBE2039:
	.loc 5 298 0
	movq	sa(%rip), %rbx
.LVL384:
	testq	%rbx, %rbx
	je	.L254
	.loc 5 298 0 is_stmt 0 discriminator 1
	movq	%rbx, %rdi
	call	_ZN8sparseSAD1Ev
.LVL385:
	movq	%rbx, %rdi
	call	_ZdlPv
.LVL386:
.L254:
.LBB2041:
.LBB2042:
.LBB2043:
.LBB2044:
	.loc 7 174 0 is_stmt 1 discriminator 2
	testq	%r13, %r13
	je	.L255
.LVL387:
.LBB2045:
.LBB2046:
	.loc 9 100 0
	movq	%r13, %rdi
	call	_ZdlPv
.LVL388:
.L255:
.LBE2046:
.LBE2045:
.LBE2044:
.LBE2043:
.LBE2042:
.LBE2041:
.LBB2047:
.LBB2048:
.LBB2049:
.LBB2050:
	.loc 7 174 0
	testq	%r12, %r12
	je	.L256
.LVL389:
.LBB2051:
.LBB2052:
	.loc 9 100 0
	movq	%r12, %rdi
	call	_ZdlPv
.LVL390:
.L256:
.LBE2052:
.LBE2051:
.LBE2050:
.LBE2049:
.LBE2048:
.LBE2047:
.LBB2053:
.LBB2054:
.LBB2055:
	.loc 7 161 0
	movq	160(%rsp), %rdi
.LVL391:
.LBB2056:
.LBB2057:
	.loc 7 174 0
	testq	%rdi, %rdi
	je	.L257
.LVL392:
.LBB2058:
.LBB2059:
	.loc 9 100 0
	call	_ZdlPv
.LVL393:
.L257:
.LBE2059:
.LBE2058:
.LBE2057:
.LBE2056:
.LBE2055:
.LBE2054:
.LBE2053:
	.loc 5 298 0 discriminator 2
	movq	40(%rsp), %rdi
	call	_ZNSt6vectorISsSaISsEED1Ev
.LVL394:
	movq	32(%rsp), %rdi
	call	_ZNSsD1Ev
.LVL395:
	leaq	80(%rsp), %rdi
	call	_ZNSsD1Ev
.LVL396:
.LBE1912:
.LBE1889:
	.loc 5 299 0 discriminator 2
	addq	$408, %rsp
.LCFI32:
	.cfi_remember_state
	.cfi_def_cfa_offset 56
	xorl	%eax, %eax
	popq	%rbx
.LCFI33:
	.cfi_def_cfa_offset 48
	popq	%rbp
.LCFI34:
	.cfi_def_cfa_offset 40
	popq	%r12
.LCFI35:
	.cfi_def_cfa_offset 32
.LVL397:
	popq	%r13
.LCFI36:
	.cfi_def_cfa_offset 24
.LVL398:
	popq	%r14
.LCFI37:
	.cfi_def_cfa_offset 16
	popq	%r15
.LCFI38:
	.cfi_def_cfa_offset 8
	ret
.LVL399:
.L223:
.LCFI39:
	.cfi_restore_state
.LBB2096:
.LBB2089:
	.loc 5 254 0
	movl	sparseMult(%rip), %edx
	movl	K(%rip), %edi
	movl	min_len(%rip), %esi
	movl	%edx, %eax
	imull	%edi, %eax
	cmpl	%esi, %eax
	jle	.L227
	subl	$1, %edx
	.loc 5 170 0
	movl	%edi, %eax
	movl	%edi, %r8d
	imull	%edx, %eax
	negl	%r8d
.LVL400:
	.p2align 4,,10
	.p2align 3
.L228:
	addl	%r8d, %eax
	.loc 5 256 0
	movl	%edx, %ebx
	.loc 5 170 0
	leal	(%rax,%rdi), %ecx
	leal	-1(%rdx), %edx
	.loc 5 255 0
	cmpl	%ecx, %esi
	jl	.L228
	.loc 5 257 0
	movl	$.LC27, %edi
	movl	%ebx, sparseMult(%rip)
.LEHB16:
	call	_ZStlsISt11char_traitsIcEERSt13basic_ostreamIcT_ES5_PKc.constprop.68
.LVL401:
	movl	%ebx, %esi
	movq	%rax, %rdi
	call	_ZNSolsEi
.LVL402:
	.loc 5 257 0 is_stmt 0 discriminator 1
	movl	$.LC28, %esi
	movq	%rax, %rdi
	call	_ZStlsISt11char_traitsIcEERSt13basic_ostreamIcT_ES5_PKc
.LVL403:
.LBB2060:
.LBB2061:
	.loc 1 111 0 is_stmt 1 discriminator 1
	movq	%rax, %rdi
	call	_ZSt4endlIcSt11char_traitsIcEERSt13basic_ostreamIT_T0_ES6_
.LVL404:
	movl	K(%rip), %edi
	movl	min_len(%rip), %esi
.LVL405:
.L227:
.LBE2061:
.LBE2060:
	.loc 5 259 0
	movl	sparseMult(%rip), %eax
	leal	-9(%rsi), %edx
	imull	%edi, %eax
	cmpl	%eax, %edx
	jg	.L225
	.loc 5 260 0
	leal	-10(%rsi), %eax
	movl	%eax, %edx
	sarl	$31, %edx
	idivl	%edi
	movl	$.LC29, %edi
	movl	%eax, %ebx
	call	_ZStlsISt11char_traitsIcEERSt13basic_ostreamIcT_ES5_PKc.constprop.68
.LVL406:
	movl	%ebx, %esi
	movq	%rax, %rdi
	call	_ZNSolsEi
.LVL407:
	.loc 5 261 0
	movl	min_len(%rip), %eax
	movl	$.LC30, %edi
	subl	$12, %eax
	movl	%eax, %edx
	sarl	$31, %edx
	idivl	K(%rip)
	movl	%eax, %ebx
	call	_ZStlsISt11char_traitsIcEERSt13basic_ostreamIcT_ES5_PKc.constprop.68
.LVL408:
	movl	%ebx, %esi
	movq	%rax, %rdi
	call	_ZNSolsEi
.LVL409:
	.loc 5 261 0 is_stmt 0 discriminator 1
	movl	$.LC31, %esi
	movq	%rax, %rdi
	call	_ZStlsISt11char_traitsIcEERSt13basic_ostreamIcT_ES5_PKc
.LVL410:
.LBB2062:
.LBB2063:
	.loc 1 111 0 is_stmt 1 discriminator 1
	movq	%rax, %rdi
	call	_ZSt4endlIcSt11char_traitsIcEERSt13basic_ostreamIT_T0_ES6_
.LEHE16:
.LVL411:
	jmp	.L225
.LVL412:
.L229:
.LBE2063:
.LBE2062:
	.loc 5 269 0 discriminator 1
	cmpb	$0, setRevComp(%rip)
	je	.L231
	.p2align 4,,4
	jmp	.L230
.LVL413:
.L224:
	.loc 5 249 0
	movl	K(%rip), %ecx
	movl	min_len(%rip), %eax
	cmpl	$3, %ecx
	jle	.L226
	.loc 5 249 0 is_stmt 0 discriminator 1
	subl	$10, %eax
	movl	%eax, %edx
	sarl	$31, %edx
	idivl	%ecx
	movl	%eax, sparseMult(%rip)
	jmp	.L225
.LVL414:
.L269:
.LBB2064:
.LBB1969:
.LBB1954:
.LBB1949:
.LBB1944:
	.loc 7 169 0 is_stmt 1
	xorl	%r12d, %r12d
	xorl	%r13d, %r13d
	jmp	.L232
.LVL415:
.L226:
.LBE1944:
.LBE1949:
.LBE1954:
.LBE1969:
.LBE2064:
	.loc 5 250 0
	subl	$12, %eax
	movl	%eax, %edx
	sarl	$31, %edx
	idivl	%ecx
	movl	%eax, sparseMult(%rip)
	jmp	.L225
.LVL416:
.L328:
.LBE2089:
.LBB2090:
	.loc 5 198 0
	movl	$.LC24, %edi
.LEHB17:
	call	_ZStlsISt11char_traitsIcEERSt13basic_ostreamIcT_ES5_PKc.constprop.68
.LVL417:
.LBB1909:
.LBB1910:
	.loc 1 111 0
	movq	%rax, %rdi
	call	_ZSt4endlIcSt11char_traitsIcEERSt13basic_ostreamIT_T0_ES6_
.LVL418:
.LBE1910:
.LBE1909:
	.loc 5 199 0
	movq	(%rbx), %rsi
	leaq	112(%rsp), %rdi
	leaq	63(%rsp), %rdx
.LVL419:
	call	_ZNSsC1EPKcRKSaIcE
.LEHE17:
.LVL420:
	leaq	112(%rsp), %rdi
.LEHB18:
	call	_Z5usageSs
.LEHE18:
.LVL421:
.L275:
.L327:
.LBE2090:
	.loc 5 225 0
	leaq	112(%rsp), %rdi
	movq	%rax, %rbx
.LVL422:
	call	_ZNSsD1Ev
.LVL423:
	movq	%rbx, %rdi
.LEHB19:
	call	_Unwind_Resume
.LVL424:
.L335:
	testq	%rsi, %rsi
	jne	.L239
.LBB2091:
	.loc 5 280 0
	movq	%rbx, %rcx
	jmp	.L240
.LVL425:
.L281:
	movq	%rax, %rbx
.LVL426:
.L265:
.LBB2065:
.LBB2066:
.LBB2067:
.LBB2068:
	.loc 7 174 0
	testq	%r12, %r12
	je	.L261
.LVL427:
.LBB2069:
.LBB2070:
	.loc 9 100 0
	movq	%r12, %rdi
	call	_ZdlPv
.LVL428:
.L261:
.LBE2070:
.LBE2069:
.LBE2068:
.LBE2067:
.LBE2066:
.LBE2065:
.LBB2071:
.LBB2072:
.LBB2073:
	.loc 7 161 0
	movq	160(%rsp), %rdi
.LVL429:
.LBB2074:
.LBB2075:
	.loc 7 174 0
	testq	%rdi, %rdi
	je	.L267
.LVL430:
.LBB2076:
.LBB2077:
	.loc 9 100 0
	call	_ZdlPv
.LVL431:
.L267:
.LBE2077:
.LBE2076:
.LBE2075:
.LBE2074:
.LBE2073:
.LBE2072:
.LBE2071:
	.loc 5 298 0
	movq	40(%rsp), %rdi
	call	_ZNSt6vectorISsSaISsEED1Ev
.LVL432:
	movq	32(%rsp), %rdi
	call	_ZNSsD1Ev
.LVL433:
.L268:
	leaq	80(%rsp), %rdi
	call	_ZNSsD1Ev
.LVL434:
	movq	%rbx, %rdi
	call	_Unwind_Resume
.LEHE19:
.LVL435:
.L334:
.LEHB20:
.LBB2078:
.LBB2026:
.LBB1985:
.LBB1983:
.LBB1981:
.LBB1980:
.LBB1979:
	.loc 9 92 0
	call	_ZSt17__throw_bad_allocv
.LEHE20:
.LVL436:
.L280:
	movq	%rax, %rbp
.LBE1979:
.LBE1980:
.LBE1981:
.LBE1983:
.LBE1985:
.LBE2026:
.LBE2078:
	.loc 5 274 0
	movq	%rbx, %rdi
	call	_ZdlPv
.LVL437:
	movq	%rbp, %rbx
	jmp	.L261
.L332:
	.loc 5 266 0
	movl	$.LC32, %edi
.LEHB21:
	call	_ZStlsISt11char_traitsIcEERSt13basic_ostreamIcT_ES5_PKc.constprop.68
.LVL438:
.LBB2079:
.LBB2080:
	.loc 1 111 0
	movq	%rax, %rdi
	call	_ZSt4endlIcSt11char_traitsIcEERSt13basic_ostreamIT_T0_ES6_
.LEHE21:
.LVL439:
.L326:
.LBE2080:
.LBE2079:
.LBE2091:
	.loc 5 228 0 discriminator 1
	movl	$1, %edi
	call	exit
.LVL440:
.L271:
.LBB2092:
.LBB2081:
.LBB2027:
.LBB1986:
.LBB1984:
.LBB1982:
	.loc 7 169 0
	xorl	%r13d, %r13d
	jmp	.L232
.LVL441:
.L270:
.LBE1982:
.LBE1984:
.LBE1986:
.LBE2027:
.LBE2081:
	.loc 5 170 0
	movq	%rbx, %rdx
	.loc 7 169 0
	movq	%r12, %rax
.LVL442:
	jmp	.L237
.LVL443:
.L279:
	.loc 5 238 0
	leaq	112(%rsp), %rdi
	movq	%rax, %rbx
.LVL444:
	call	_ZNSsD1Ev
.LVL445:
	jmp	.L261
.LVL446:
.L282:
.LBB2082:
.LBB2083:
.LBB2084:
.LBB2085:
	.loc 7 174 0
	testq	%r13, %r13
	movq	%rax, %rbx
.LVL447:
	je	.L265
.LVL448:
.LBB2086:
.LBB2087:
	.loc 9 100 0
	movq	%r13, %rdi
	call	_ZdlPv
.LVL449:
	jmp	.L265
.LVL450:
.L330:
.LBE2087:
.LBE2086:
.LBE2085:
.LBE2084:
.LBE2083:
.LBE2082:
.LBE2092:
	.loc 5 227 0 discriminator 2
	movl	$.LC25, %edi
.L325:
.LEHB22:
	.loc 5 228 0 discriminator 1
	call	_ZStlsISt11char_traitsIcEERSt13basic_ostreamIcT_ES5_PKc.constprop.68
.LVL451:
.LBB2093:
.LBB2094:
	.loc 1 111 0 discriminator 1
	movq	%rax, %rdi
	call	_ZSt4endlIcSt11char_traitsIcEERSt13basic_ostreamIT_T0_ES6_
.LVL452:
	jmp	.L326
.LVL453:
.L329:
.LBE2094:
.LBE2093:
	.loc 5 225 0 discriminator 1
	movq	(%rbx), %rsi
	leaq	112(%rsp), %rdi
	leaq	63(%rsp), %rdx
.LVL454:
	call	_ZNSsC1EPKcRKSaIcE
.LEHE22:
.LVL455:
	leaq	112(%rsp), %rdi
.LEHB23:
	call	_Z5usageSs
.LEHE23:
.LVL456:
.L274:
.LBB2095:
.LBB2088:
.LBB1970:
.LBB1955:
.LBB1950:
.LBB1945:
	.loc 5 170 0
	xorl	%eax, %eax
	jmp	.L248
.LVL457:
.L276:
	jmp	.L327
.LVL458:
.L278:
	movq	%rax, %rbx
	.p2align 4,,6
	jmp	.L261
.LVL459:
.L277:
	movq	%rax, %rbx
.LVL460:
	.p2align 4,,5
	jmp	.L268
.LVL461:
.L333:
.LBB1940:
.LBB1938:
	.loc 9 92 0
	.p2align 4,,5
.LEHB24:
	call	_ZSt17__throw_bad_allocv
.LEHE24:
.LVL462:
.L331:
.LBE1938:
.LBE1940:
.LBE1945:
.LBE1950:
.LBE1955:
.LBE1970:
.LBE2088:
.LBE2095:
	.loc 5 228 0 discriminator 1
	movl	$.LC26, %edi
	jmp	.L325
.LBE2096:
	.cfi_endproc
.LFE6860:
	.section	.gcc_except_table
.LLSDA6860:
	.byte	0xff
	.byte	0xff
	.byte	0x1
	.uleb128 .LLSDACSE6860-.LLSDACSB6860
.LLSDACSB6860:
	.uleb128 .LEHB7-.LFB6860
	.uleb128 .LEHE7-.LEHB7
	.uleb128 0
	.uleb128 0
	.uleb128 .LEHB8-.LFB6860
	.uleb128 .LEHE8-.LEHB8
	.uleb128 .L277-.LFB6860
	.uleb128 0
	.uleb128 .LEHB9-.LFB6860
	.uleb128 .LEHE9-.LEHB9
	.uleb128 .L278-.LFB6860
	.uleb128 0
	.uleb128 .LEHB10-.LFB6860
	.uleb128 .LEHE10-.LEHB10
	.uleb128 .L279-.LFB6860
	.uleb128 0
	.uleb128 .LEHB11-.LFB6860
	.uleb128 .LEHE11-.LEHB11
	.uleb128 .L278-.LFB6860
	.uleb128 0
	.uleb128 .LEHB12-.LFB6860
	.uleb128 .LEHE12-.LEHB12
	.uleb128 .L280-.LFB6860
	.uleb128 0
	.uleb128 .LEHB13-.LFB6860
	.uleb128 .LEHE13-.LEHB13
	.uleb128 .L278-.LFB6860
	.uleb128 0
	.uleb128 .LEHB14-.LFB6860
	.uleb128 .LEHE14-.LEHB14
	.uleb128 .L281-.LFB6860
	.uleb128 0
	.uleb128 .LEHB15-.LFB6860
	.uleb128 .LEHE15-.LEHB15
	.uleb128 .L282-.LFB6860
	.uleb128 0
	.uleb128 .LEHB16-.LFB6860
	.uleb128 .LEHE16-.LEHB16
	.uleb128 .L278-.LFB6860
	.uleb128 0
	.uleb128 .LEHB17-.LFB6860
	.uleb128 .LEHE17-.LEHB17
	.uleb128 0
	.uleb128 0
	.uleb128 .LEHB18-.LFB6860
	.uleb128 .LEHE18-.LEHB18
	.uleb128 .L275-.LFB6860
	.uleb128 0
	.uleb128 .LEHB19-.LFB6860
	.uleb128 .LEHE19-.LEHB19
	.uleb128 0
	.uleb128 0
	.uleb128 .LEHB20-.LFB6860
	.uleb128 .LEHE20-.LEHB20
	.uleb128 .L281-.LFB6860
	.uleb128 0
	.uleb128 .LEHB21-.LFB6860
	.uleb128 .LEHE21-.LEHB21
	.uleb128 .L278-.LFB6860
	.uleb128 0
	.uleb128 .LEHB22-.LFB6860
	.uleb128 .LEHE22-.LEHB22
	.uleb128 0
	.uleb128 0
	.uleb128 .LEHB23-.LFB6860
	.uleb128 .LEHE23-.LEHB23
	.uleb128 .L276-.LFB6860
	.uleb128 0
	.uleb128 .LEHB24-.LFB6860
	.uleb128 .LEHE24-.LEHB24
	.uleb128 .L278-.LFB6860
	.uleb128 0
.LLSDACSE6860:
	.section	.text.startup
	.size	main, .-main
	.p2align 4,,15
	.type	_GLOBAL__sub_I_min_len, @function
_GLOBAL__sub_I_min_len:
.LFB8211:
	.loc 5 323 0
	.cfi_startproc
.LVL463:
	subq	$8, %rsp
.LCFI40:
	.cfi_def_cfa_offset 16
.LBB2102:
.LBB2103:
	.file 15 "/usr/local/lib/gcc/x86_64-unknown-linux-gnu/4.7.2/../../../../include/c++/4.7.2/iostream"
	.loc 15 75 0
	movl	$_ZStL8__ioinit, %edi
	call	_ZNSt8ios_base4InitC1Ev
.LVL464:
	movl	$__dso_handle, %edx
	movl	$_ZStL8__ioinit, %esi
	movl	$_ZNSt8ios_base4InitD1Ev, %edi
	call	__cxa_atexit
.LVL465:
	.loc 5 41 0
	movl	$__dso_handle, %edx
	movl	$query_fasta, %esi
.LBB2104:
.LBB2105:
.LBB2106:
	.loc 6 272 0
	movq	$_ZNSs4_Rep20_S_empty_rep_storageE+24, query_fasta(%rip)
.LVL466:
.LBE2106:
.LBE2105:
.LBE2104:
	.loc 5 41 0
	movl	$_ZNSsD1Ev, %edi
.LBE2103:
.LBE2102:
	.loc 5 323 0
	addq	$8, %rsp
.LCFI41:
	.cfi_def_cfa_offset 8
.LBB2108:
.LBB2107:
	.loc 5 41 0
	jmp	__cxa_atexit
.LVL467:
.LBE2107:
.LBE2108:
	.cfi_endproc
.LFE8211:
	.size	_GLOBAL__sub_I_min_len, .-_GLOBAL__sub_I_min_len
	.section	.ctors,"aw",@progbits
	.align 8
	.quad	_GLOBAL__sub_I_min_len
	.globl	query_fasta
	.bss
	.align 8
	.type	query_fasta, @object
	.size	query_fasta, 8
query_fasta:
	.zero	8
	.globl	sa
	.align 16
	.type	sa, @object
	.size	sa, 8
sa:
	.zero	8
	.globl	query_threads
	.data
	.align 16
	.type	query_threads, @object
	.size	query_threads, 4
query_threads:
	.long	1
	.globl	num_threads
	.align 16
	.type	num_threads, @object
	.size	num_threads, 4
num_threads:
	.long	1
	.globl	K
	.align 16
	.type	K, @object
	.size	K, 4
K:
	.long	1
	.globl	printSubstring
	.bss
	.align 16
	.type	printSubstring, @object
	.size	printSubstring, 1
printSubstring:
	.zero	1
	.globl	print_length
	.align 16
	.type	print_length, @object
	.size	print_length, 1
print_length:
	.zero	1
	.globl	child
	.data
	.align 16
	.type	child, @object
	.size	child, 1
child:
	.byte	1
	.globl	suflink
	.align 16
	.type	suflink, @object
	.size	suflink, 1
suflink:
	.byte	1
	.globl	automaticSkip
	.align 16
	.type	automaticSkip, @object
	.size	automaticSkip, 1
automaticSkip:
	.byte	1
	.globl	automatic
	.align 16
	.type	automatic, @object
	.size	automatic, 1
automatic:
	.byte	1
	.globl	setBoth
	.bss
	.align 16
	.type	setBoth, @object
	.size	setBoth, 1
setBoth:
	.zero	1
	.globl	setRevComp
	.align 16
	.type	setRevComp, @object
	.size	setRevComp, 1
setRevComp:
	.zero	1
	.globl	forwards
	.data
	.align 16
	.type	forwards, @object
	.size	forwards, 1
forwards:
	.byte	1
	.globl	nucleotides_only
	.bss
	.align 16
	.type	nucleotides_only, @object
	.size	nucleotides_only, 1
nucleotides_only:
	.zero	1
	.globl	_4column
	.align 16
	.type	_4column, @object
	.size	_4column, 1
_4column:
	.zero	1
	.globl	rev_comp
	.align 16
	.type	rev_comp, @object
	.size	rev_comp, 1
rev_comp:
	.zero	1
	.globl	type
	.data
	.align 16
	.type	type, @object
	.size	type, 4
type:
	.long	1
	.globl	sparseMult
	.align 16
	.type	sparseMult, @object
	.size	sparseMult, 4
sparseMult:
	.long	1
	.globl	chunks
	.align 4
	.type	chunks, @object
	.size	chunks, 4
chunks:
	.long	1
	.globl	min_len
	.align 16
	.type	min_len, @object
	.size	min_len, 4
min_len:
	.long	20
	.section	.rodata.str1.1
.LC35:
	.string	"l"
.LC36:
	.string	"mumreference"
.LC37:
	.string	"b"
.LC38:
	.string	"maxmatch"
.LC39:
	.string	"mum"
.LC40:
	.string	"mumcand"
.LC41:
	.string	"F"
.LC42:
	.string	"k"
.LC43:
	.string	"threads"
.LC44:
	.string	"n"
.LC45:
	.string	"qthreads"
.LC46:
	.string	"suflink"
.LC47:
	.string	"chunks"
.LC48:
	.string	"skip"
.LC49:
	.string	"L"
.LC50:
	.string	"r"
.LC51:
	.string	"s"
	.data
	.align 32
	.type	_ZZ4mainE12long_options, @object
	.size	_ZZ4mainE12long_options, 576
_ZZ4mainE12long_options:
	.quad	.LC35
	.long	1
	.zero	4
	.quad	0
	.long	0
	.zero	4
	.quad	.LC36
	.long	0
	.zero	4
	.quad	0
	.long	0
	.zero	4
	.quad	.LC37
	.long	0
	.zero	4
	.quad	0
	.long	0
	.zero	4
	.quad	.LC38
	.long	0
	.zero	4
	.quad	0
	.long	0
	.zero	4
	.quad	.LC39
	.long	0
	.zero	4
	.quad	0
	.long	0
	.zero	4
	.quad	.LC40
	.long	0
	.zero	4
	.quad	0
	.long	0
	.zero	4
	.quad	.LC41
	.long	0
	.zero	4
	.quad	0
	.long	0
	.zero	4
	.quad	.LC42
	.long	1
	.zero	4
	.quad	0
	.long	0
	.zero	4
	.quad	.LC43
	.long	1
	.zero	4
	.quad	0
	.long	0
	.zero	4
	.quad	.LC44
	.long	0
	.zero	4
	.quad	0
	.long	0
	.zero	4
	.quad	.LC45
	.long	1
	.zero	4
	.quad	0
	.long	0
	.zero	4
	.quad	.LC46
	.long	1
	.zero	4
	.quad	0
	.long	0
	.zero	4
	.quad	.LC47
	.long	1
	.zero	4
	.quad	0
	.long	0
	.zero	4
	.quad	.LC48
	.long	1
	.zero	4
	.quad	0
	.long	0
	.zero	4
	.quad	.LC49
	.long	0
	.zero	4
	.quad	0
	.long	0
	.zero	4
	.quad	.LC50
	.long	0
	.zero	4
	.quad	0
	.long	0
	.zero	4
	.quad	.LC51
	.long	0
	.zero	4
	.quad	0
	.long	0
	.zero	4
	.quad	0
	.long	0
	.zero	4
	.quad	0
	.long	0
	.zero	4
	.local	_ZStL8__ioinit
	.comm	_ZStL8__ioinit,1,1
	.weakref	_ZL22__gthrw_pthread_cancelm,pthread_cancel
	.section	.rodata.cst16,"aM",@progbits,16
	.align 16
.LC23:
	.long	0
	.long	1
	.long	2
	.long	3
	.align 16
.LC33:
	.long	4
	.long	4
	.long	4
	.long	4
	.text
.Letext0:
	.file 16 "/usr/local/lib/gcc/x86_64-unknown-linux-gnu/4.7.2/../../../../include/c++/4.7.2/cwchar"
	.file 17 "/usr/local/lib/gcc/x86_64-unknown-linux-gnu/4.7.2/../../../../include/c++/4.7.2/bits/exception_ptr.h"
	.file 18 "/usr/local/lib/gcc/x86_64-unknown-linux-gnu/4.7.2/../../../../include/c++/4.7.2/type_traits"
	.file 19 "/usr/local/lib/gcc/x86_64-unknown-linux-gnu/4.7.2/../../../../include/c++/4.7.2/x86_64-unknown-linux-gnu/bits/c++config.h"
	.file 20 "/usr/local/lib/gcc/x86_64-unknown-linux-gnu/4.7.2/../../../../include/c++/4.7.2/debug/debug.h"
	.file 21 "/usr/local/lib/gcc/x86_64-unknown-linux-gnu/4.7.2/../../../../include/c++/4.7.2/cstdio"
	.file 22 "/usr/local/lib/gcc/x86_64-unknown-linux-gnu/4.7.2/../../../../include/c++/4.7.2/cstdlib"
	.file 23 "<interno>"
	.file 24 "/usr/local/lib/gcc/x86_64-unknown-linux-gnu/4.7.2/../../../../include/c++/4.7.2/tr1/cstdint"
	.file 25 "/usr/local/lib/gcc/x86_64-unknown-linux-gnu/4.7.2/../../../../include/c++/4.7.2/tr1/type_traits"
	.file 26 "/usr/local/lib/gcc/x86_64-unknown-linux-gnu/4.7.2/../../../../include/c++/4.7.2/tr1/cmath"
	.file 27 "/usr/local/lib/gcc/x86_64-unknown-linux-gnu/4.7.2/../../../../include/c++/4.7.2/tr1/special_function_util.h"
	.file 28 "/usr/local/lib/gcc/x86_64-unknown-linux-gnu/4.7.2/../../../../include/c++/4.7.2/cstdint"
	.file 29 "/usr/local/lib/gcc/x86_64-unknown-linux-gnu/4.7.2/../../../../include/c++/4.7.2/clocale"
	.file 30 "/usr/local/lib/gcc/x86_64-unknown-linux-gnu/4.7.2/../../../../include/c++/4.7.2/bits/stl_pair.h"
	.file 31 "/usr/local/lib/gcc/x86_64-unknown-linux-gnu/4.7.2/../../../../include/c++/4.7.2/new"
	.file 32 "/usr/local/lib/gcc/x86_64-unknown-linux-gnu/4.7.2/../../../../include/c++/4.7.2/bits/allocator.h"
	.file 33 "/usr/local/lib/gcc/x86_64-unknown-linux-gnu/4.7.2/../../../../include/c++/4.7.2/bits/basic_string.tcc"
	.file 34 "/usr/local/lib/gcc/x86_64-unknown-linux-gnu/4.7.2/../../../../include/c++/4.7.2/initializer_list"
	.file 35 "/usr/local/lib/gcc/x86_64-unknown-linux-gnu/4.7.2/../../../../include/c++/4.7.2/bits/stringfwd.h"
	.file 36 "/usr/local/lib/gcc/x86_64-unknown-linux-gnu/4.7.2/../../../../include/c++/4.7.2/tr1/random.h"
	.file 37 "/usr/local/lib/gcc/x86_64-unknown-linux-gnu/4.7.2/../../../../include/c++/4.7.2/cwctype"
	.file 38 "/usr/local/lib/gcc/x86_64-unknown-linux-gnu/4.7.2/../../../../include/c++/4.7.2/bits/ostream.tcc"
	.file 39 "/usr/local/lib/gcc/x86_64-unknown-linux-gnu/4.7.2/../../../../include/c++/4.7.2/istream"
	.file 40 "/usr/local/lib/gcc/x86_64-unknown-linux-gnu/4.7.2/../../../../include/c++/4.7.2/ctime"
	.file 41 "/usr/local/lib/gcc/x86_64-unknown-linux-gnu/4.7.2/../../../../include/c++/4.7.2/bits/stl_iterator_base_types.h"
	.file 42 "/usr/local/lib/gcc/x86_64-unknown-linux-gnu/4.7.2/../../../../include/c++/4.7.2/bits/postypes.h"
	.file 43 "/usr/local/lib/gcc/x86_64-unknown-linux-gnu/4.7.2/../../../../include/c++/4.7.2/bits/stl_uninitialized.h"
	.file 44 "/usr/local/lib/gcc/x86_64-unknown-linux-gnu/4.7.2/../../../../include/c++/4.7.2/cmath"
	.file 45 "/usr/local/lib/gcc/x86_64-unknown-linux-gnu/4.7.2/../../../../include/c++/4.7.2/bits/alloc_traits.h"
	.file 46 "/usr/local/lib/gcc/x86_64-unknown-linux-gnu/4.7.2/../../../../include/c++/4.7.2/bits/vector.tcc"
	.file 47 "/usr/local/lib/gcc/x86_64-unknown-linux-gnu/4.7.2/../../../../include/c++/4.7.2/bits/random.h"
	.file 48 "/usr/local/lib/gcc/x86_64-unknown-linux-gnu/4.7.2/../../../../include/c++/4.7.2/bits/uses_allocator.h"
	.file 49 "/usr/local/lib/gcc/x86_64-unknown-linux-gnu/4.7.2/../../../../include/c++/4.7.2/tuple"
	.file 50 "/usr/local/lib/gcc/x86_64-unknown-linux-gnu/4.7.2/../../../../include/c++/4.7.2/bits/basic_ios.tcc"
	.file 51 "/usr/local/lib/gcc/x86_64-unknown-linux-gnu/4.7.2/../../../../include/c++/4.7.2/bits/move.h"
	.file 52 "/usr/local/lib/gcc/x86_64-unknown-linux-gnu/4.7.2/../../../../include/c++/4.7.2/iosfwd"
	.file 53 "/usr/local/lib/gcc/x86_64-unknown-linux-gnu/4.7.2/../../../../include/c++/4.7.2/fstream"
	.file 54 "/usr/local/lib/gcc/x86_64-unknown-linux-gnu/4.7.2/../../../../include/c++/4.7.2/functional"
	.file 55 "/usr/local/lib/gcc/x86_64-unknown-linux-gnu/4.7.2/../../../../include/c++/4.7.2/bits/ostream_insert.h"
	.file 56 "/usr/local/lib/gcc/x86_64-unknown-linux-gnu/4.7.2/../../../../include/c++/4.7.2/bits/functexcept.h"
	.file 57 "/usr/include/stdio.h"
	.file 58 "/usr/include/libio.h"
	.file 59 "/usr/local/lib/gcc/x86_64-unknown-linux-gnu/4.7.2/include/stddef.h"
	.file 60 "/usr/include/wchar.h"
	.file 61 "/usr/include/time.h"
	.file 62 "/usr/local/lib/gcc/x86_64-unknown-linux-gnu/4.7.2/../../../../include/c++/4.7.2/ext/numeric_traits.h"
	.file 63 "/usr/local/lib/gcc/x86_64-unknown-linux-gnu/4.7.2/../../../../include/c++/4.7.2/bits/stl_iterator.h"
	.file 64 "/usr/local/lib/gcc/x86_64-unknown-linux-gnu/4.7.2/../../../../include/c++/4.7.2/ext/alloc_traits.h"
	.file 65 "/usr/local/lib/gcc/x86_64-unknown-linux-gnu/4.7.2/../../../../include/c++/4.7.2/ext/type_traits.h"
	.file 66 "/usr/include/bits/types.h"
	.file 67 "/usr/include/_G_config.h"
	.file 68 "/usr/include/bits/stdio.h"
	.file 69 "/usr/include/sys/types.h"
	.file 70 "/usr/include/bits/time.h"
	.file 71 "/usr/include/bits/pthreadtypes.h"
	.file 72 "/usr/include/stdint.h"
	.file 73 "/usr/local/lib/gcc/x86_64-unknown-linux-gnu/4.7.2/../../../../include/c++/4.7.2/parallel/types.h"
	.file 74 "/usr/local/lib/gcc/x86_64-unknown-linux-gnu/4.7.2/../../../../include/c++/4.7.2/parallel/base.h"
	.file 75 "/usr/local/lib/gcc/x86_64-unknown-linux-gnu/4.7.2/../../../../include/c++/4.7.2/parallel/multiway_mergesort.h"
	.file 76 "/usr/include/locale.h"
	.file 77 "/usr/local/lib/gcc/x86_64-unknown-linux-gnu/4.7.2/../../../../include/c++/4.7.2/x86_64-unknown-linux-gnu/bits/atomic_word.h"
	.file 78 "/usr/include/wctype.h"
	.file 79 "/usr/include/bits/mathdef.h"
	.file 80 "fasta.hpp"
	.file 81 "/usr/include/getopt.h"
	.file 82 "/usr/include/bits/resource.h"
	.file 83 "/usr/include/sys/resource.h"
	.file 84 "/usr/local/lib/gcc/x86_64-unknown-linux-gnu/4.7.2/../../../../include/c++/4.7.2/x86_64-unknown-linux-gnu/bits/gthr-default.h"
	.file 85 "/usr/include/ctype.h"
	.file 86 "/usr/include/pthread.h"
	.section	.note.GNU-stack,"",@progbits
